

Microchip MPLAB XC8 Assembler V2.36 build 20220127204148 
                                                                                               Sat Oct 01 16:21:02 2022

Microchip MPLAB XC8 C Compiler v2.36 (Free license) build 20220127204148 Og1 
     1                           	processor	18F25K83
     2                           	fnconf	rparam,??,?,0
     3                           	pagewidth 120
     4                           	opt	flic
     5                           	psect	idataCOMRAM,global,class=CODE,delta=1,noexec
     6                           	psect	smallconst,global,reloc=2,class=SMALLCONST,delta=1,noexec
     7                           	psect	cinit,global,reloc=2,class=CODE,delta=1
     8                           	psect	bssCOMRAM,global,class=COMRAM,space=1,delta=1,lowdata,noexec
     9                           	psect	dataCOMRAM,global,class=COMRAM,space=1,delta=1,lowdata,noexec
    10                           	psect	cstackCOMRAM,global,class=COMRAM,space=1,delta=1,lowdata,noexec
    11                           	psect	text0,global,reloc=2,class=CODE,delta=1
    12                           	psect	text1,global,reloc=2,class=CODE,delta=1
    13                           	psect	text2,global,reloc=2,class=CODE,delta=1
    14                           	psect	text3,global,reloc=2,class=CODE,delta=1
    15                           	psect	text4,global,reloc=2,class=CODE,delta=1
    16                           	psect	text5,global,reloc=2,class=CODE,delta=1
    17                           	psect	text6,global,reloc=2,class=CODE,delta=1
    18                           	psect	text7,global,reloc=2,class=CODE,delta=1
    19                           	psect	text8,global,reloc=2,class=CODE,delta=1
    20                           	psect	text9,global,reloc=2,class=CODE,delta=1
    21                           	psect	text10,global,reloc=2,class=CODE,delta=1
    22                           	psect	text11,global,reloc=2,class=CODE,delta=1,inline
    23                           	psect	text12,global,reloc=2,class=CODE,delta=1
    24                           	psect	text13,global,reloc=2,class=CODE,delta=1
    25                           	psect	text14,global,reloc=2,class=CODE,delta=1
    26                           	psect	text15,global,reloc=2,class=CODE,delta=1,inline
    27                           	psect	text16,global,reloc=2,class=CODE,delta=1,inline
    28                           	psect	text17,global,reloc=2,class=CODE,delta=1
    29                           	psect	text18,global,reloc=2,class=CODE,delta=1
    30                           	psect	text19,global,reloc=2,class=CODE,delta=1
    31                           	psect	text20,global,reloc=2,class=CODE,delta=1
    32                           	psect	text21,global,reloc=2,class=CODE,delta=1
    33                           	psect	text22,global,reloc=2,class=CODE,delta=1
    34                           	psect	text23,global,reloc=2,class=CODE,delta=1
    35                           	psect	text24,global,reloc=2,class=CODE,delta=1
    36                           	psect	text25,global,reloc=2,class=CODE,delta=1
    37                           	psect	text26,global,reloc=2,class=CODE,delta=1
    38                           	psect	text27,global,reloc=2,class=CODE,delta=1
    39                           	psect	text28,global,reloc=2,class=CODE,delta=1
    40                           	psect	text29,global,reloc=2,class=CODE,delta=1
    41                           	psect	text30,global,reloc=2,class=CODE,delta=1
    42                           	psect	text31,global,reloc=2,class=CODE,delta=1
    43                           	psect	text32,global,reloc=2,class=CODE,delta=1
    44                           	psect	text33,global,reloc=2,class=CODE,delta=1
    45                           	psect	text34,global,reloc=2,class=CODE,delta=1
    46                           	psect	text35,global,reloc=2,class=CODE,delta=1
    47                           	psect	text36,global,reloc=2,class=CODE,delta=1,inline
    48                           	psect	text37,global,reloc=2,class=CODE,delta=1,inline
    49                           	psect	text38,global,reloc=2,class=CODE,delta=1,inline
    50                           	psect	text39,global,reloc=2,class=CODE,delta=1,inline
    51                           	psect	text40,global,reloc=2,class=CODE,delta=1,inline
    52                           	psect	text41,global,reloc=2,class=CODE,delta=1,inline
    53                           	psect	text42,global,reloc=2,class=CODE,delta=1,inline
    54                           	psect	text43,global,reloc=2,class=CODE,delta=1,inline
    55                           	psect	text44,global,reloc=2,class=CODE,delta=1,inline
    56                           	psect	text45,global,reloc=2,class=CODE,delta=1,inline
    57                           	psect	text46,global,reloc=2,class=CODE,delta=1,inline
    58                           	psect	text47,global,reloc=2,class=CODE,delta=1,inline
    59                           	psect	text48,global,reloc=2,class=CODE,delta=1,inline
    60                           	psect	text49,global,reloc=2,class=CODE,delta=1
    61                           	psect	text50,global,reloc=2,class=CODE,delta=1
    62                           	psect	text51,global,reloc=2,class=CODE,delta=1
    63                           	psect	text52,global,reloc=2,class=CODE,delta=1
    64                           	psect	text53,global,reloc=2,class=CODE,delta=1
    65                           	psect	text54,global,reloc=2,class=CODE,delta=1
    66                           	psect	text55,global,reloc=2,class=CODE,delta=1
    67                           	psect	text56,global,reloc=2,class=CODE,delta=1
    68                           	psect	text57,global,reloc=2,class=CODE,delta=1
    69                           	psect	text58,global,reloc=2,class=CODE,delta=1
    70                           	psect	text59,global,reloc=2,class=CODE,delta=1,inline
    71                           	psect	text60,global,reloc=2,class=CODE,delta=1,inline
    72                           	psect	text61,global,reloc=2,class=CODE,delta=1,inline
    73                           	psect	text62,global,reloc=2,class=CODE,delta=1,inline
    74                           	psect	text63,global,reloc=2,class=CODE,delta=1,inline
    75                           	psect	text64,global,reloc=2,class=CODE,delta=1,inline
    76                           	psect	text65,global,reloc=2,class=CODE,delta=1,inline
    77                           	psect	text66,global,reloc=2,class=CODE,delta=1
    78                           	psect	text67,global,reloc=2,class=CODE,delta=1,inline
    79                           	psect	text68,global,reloc=2,class=CODE,delta=1,inline
    80                           	psect	text69,global,reloc=2,class=CODE,delta=1,inline
    81                           	psect	intsave_regs,global,class=BIGRAM,space=1,delta=1,noexec
    82                           	psect	text70,global,reloc=2,class=CODE,delta=1,inline
    83                           	psect	rparam,global,class=COMRAM,space=1,delta=1,noexec
    84                           	psect	idloc,global,abs,ovrld,class=IDLOC,space=5,delta=1,noexec
    85                           	psect	config,global,abs,ovrld,class=CONFIG,space=4,delta=1,noexec
    86  0000                     
    87                           ; Version 2.35
    88                           ; Generated 05/05/2021 GMT
    89                           ; 
    90                           ; Copyright © 2021, Microchip Technology Inc. and its subsidiaries ("Microchip")
    91                           ; All rights reserved.
    92                           ; 
    93                           ; This software is developed by Microchip Technology Inc. and its subsidiaries ("Microch
      +                          ip").
    94                           ; 
    95                           ; Redistribution and use in source and binary forms, with or without modification, are
    96                           ; permitted provided that the following conditions are met:
    97                           ; 
    98                           ;     1. Redistributions of source code must retain the above copyright notice, this lis
      +                          t of
    99                           ;        conditions and the following disclaimer.
   100                           ; 
   101                           ;     2. Redistributions in binary form must reproduce the above copyright notice, this 
      +                          list
   102                           ;        of conditions and the following disclaimer in the documentation and/or other
   103                           ;        materials provided with the distribution. Publication is not required when
   104                           ;        this file is used in an embedded application.
   105                           ; 
   106                           ;     3. Microchip's name may not be used to endorse or promote products derived from th
      +                          is
   107                           ;        software without specific prior written permission.
   108                           ; 
   109                           ; THIS SOFTWARE IS PROVIDED BY MICROCHIP "AS IS" AND ANY EXPRESS OR IMPLIED WARRANTIES,
   110                           ; INCLUDING, BUT NOT LIMITED TO, THE IMPLIED WARRANTIES OF MERCHANTABILITY AND FITNESS F
      +                          OR
   111                           ; PURPOSE ARE DISCLAIMED.  IN NO EVENT SHALL MICROCHIP BE LIABLE FOR ANY DIRECT, INDIREC
      +                          T,
   112                           ; INCIDENTAL, SPECIAL, EXEMPLARY, OR CONSEQUENTIAL DAMAGES (INCLUDING BUT NOT LIMITED TO
   113                           ; PROCUREMENT OF SUBSTITUTE GOODS OR SERVICES; LOSS OF USE, DATA OR PROFITS; OR BUSINESS
   114                           ; INTERRUPTION) HOWSOEVER CAUSED AND ON ANY THEORY OF LIABILITY, WHETHER IN CONTRACT, ST
      +                          RICT
   115                           ; LIABILITY, OR TORT (INCLUDING NEGLIGENCE OR OTHERWISE) ARISING IN ANY WAY OUT OF THE U
      +                          SE OF
   116                           ; THIS SOFTWARE, EVEN IF ADVISED OF THE POSSIBILITY OF SUCH DAMAGE.
   117                           ; 
   118                           ; 
   119                           ; Code-generator required, PIC18F25K83 Definitions
   120                           ; 
   121                           ; SFR Addresses
   122  0000                     
   123                           	psect	idataCOMRAM
   124  0013C8                     __pidataCOMRAM:
   125                           	callstack 0
   126                           
   127                           ;initializer for _i2c_send_data
   128  0013C8  00                 	db	0
   129  0013C9  00                 	db	0
   130  0013CA  0A                 	db	10
   131  0013CB  0B                 	db	11
   132  0013CC  0C                 	db	12
   133  0013CD  0D                 	db	13
   134                           
   135                           	psect	smallconst
   136  000800                     __psmallconst:
   137                           	callstack 0
   138  000800  00                 	db	0
   139  000801                     _i2c2_fsmStateTable:
   140                           	callstack 0
   141  000801  70                 	db	low _I2C2_DO_IDLE
   142  000802  13                 	db	high _I2C2_DO_IDLE
   143  000803  FC                 	db	low _I2C2_DO_SEND_ADR_READ
   144  000804  10                 	db	high _I2C2_DO_SEND_ADR_READ
   145  000805  08                 	db	low _I2C2_DO_SEND_ADR_WRITE
   146  000806  13                 	db	high _I2C2_DO_SEND_ADR_WRITE
   147  000807  28                 	db	low _I2C2_DO_TX
   148  000808  08                 	db	high _I2C2_DO_TX
   149  000809  EA                 	db	low _I2C2_DO_RX
   150  00080A  09                 	db	high _I2C2_DO_RX
   151  00080B  10                 	db	low _I2C2_DO_TX_EMPTY
   152  00080C  0C                 	db	high _I2C2_DO_TX_EMPTY
   153  00080D  4C                 	db	low _I2C2_DO_RX_EMPTY
   154  00080E  09                 	db	high _I2C2_DO_RX_EMPTY
   155  00080F  58                 	db	low _I2C2_DO_SEND_RESTART_READ
   156  000810  13                 	db	high _I2C2_DO_SEND_RESTART_READ
   157  000811  0E                 	db	low _I2C2_DO_SEND_RESTART_WRITE
   158  000812  14                 	db	high _I2C2_DO_SEND_RESTART_WRITE
   159  000813  0A                 	db	low _I2C2_DO_SEND_RESTART
   160  000814  14                 	db	high _I2C2_DO_SEND_RESTART
   161  000815  50                 	db	low _I2C2_DO_SEND_STOP
   162  000816  11                 	db	high _I2C2_DO_SEND_STOP
   163  000817  B0                 	db	low _I2C2_DO_RX_ACK
   164  000818  13                 	db	high _I2C2_DO_RX_ACK
   165  000819  B8                 	db	low _I2C2_DO_TX_ACK
   166  00081A  13                 	db	high _I2C2_DO_TX_ACK
   167  00081B  4A                 	db	low _I2C2_DO_RX_NACK_STOP
   168  00081C  13                 	db	high _I2C2_DO_RX_NACK_STOP
   169  00081D  A8                 	db	low _I2C2_DO_RX_NACK_RESTART
   170  00081E  13                 	db	high _I2C2_DO_RX_NACK_RESTART
   171  00081F  3C                 	db	low _I2C2_DO_RESET
   172  000820  13                 	db	high _I2C2_DO_RESET
   173  000821  FE                 	db	low _I2C2_DO_ADDRESS_NACK
   174  000822  0C                 	db	high _I2C2_DO_ADDRESS_NACK
   175  000823  8A                 	db	low _I2C2_DO_BUS_COLLISION
   176  000824  0C                 	db	high _I2C2_DO_BUS_COLLISION
   177  000825  2E                 	db	low _I2C2_DO_BUS_ERROR
   178  000826  13                 	db	high _I2C2_DO_BUS_ERROR
   179  000827                     __end_of_i2c2_fsmStateTable:
   180                           	callstack 0
   181  0000                     _I2C2TXB	set	15701
   182  0000                     _I2C2PIE	set	15716
   183  0000                     _OSCTUNE	set	14814
   184  0000                     _OSCFRQ	set	14815
   185  0000                     _I2C2PIEbits	set	15716
   186  0000                     _I2C2PIRbits	set	15715
   187  0000                     _I2C2ERRbits	set	15712
   188  0000                     _I2C2CON1bits	set	15710
   189  0000                     _I2C2CON0bits	set	15709
   190  0000                     _LATBbits	set	16315
   191  0000                     _LATCbits	set	16316
   192  0000                     _PIE7bits	set	14743
   193  0000                     _PMD0	set	14784
   194  0000                     _OSCCON1	set	14809
   195  0000                     _RB1PPS	set	14857
   196  0000                     _ANSELA	set	14912
   197  0000                     _ANSELB	set	14928
   198  0000                     _ANSELC	set	14944
   199  0000                     _LATA	set	16314
   200  0000                     _TRISA	set	16322
   201  0000                     _LATC	set	16316
   202  0000                     _LATB	set	16315
   203  0000                     _TRISC	set	16324
   204  0000                     _TRISB	set	16323
   205  0000                     _INLVLC	set	14948
   206  0000                     _SLRCONC	set	14947
   207  0000                     _ODCONC	set	14946
   208  0000                     _WPUC	set	14945
   209  0000                     _WPUE	set	14977
   210  0000                     _INLVLB	set	14932
   211  0000                     _SLRCONB	set	14931
   212  0000                     _ODCONB	set	14930
   213  0000                     _WPUB	set	14929
   214  0000                     _INLVLA	set	14916
   215  0000                     _SLRCONA	set	14915
   216  0000                     _ODCONA	set	14914
   217  0000                     _WPUA	set	14913
   218  0000                     _INLVLE	set	14980
   219  0000                     _I2C2SCLPPS	set	15077
   220  0000                     _I2C2RXB	set	15700
   221  0000                     _I2C2CNT	set	15702
   222  0000                     _I2C2CON0	set	15709
   223  0000                     _I2C2SDAPPS	set	15078
   224  0000                     _RB2PPS	set	14858
   225  0000                     _OSCCON3	set	14811
   226  0000                     _OSCEN	set	14813
   227  0000                     _PMD7	set	14791
   228  0000                     _PMD6	set	14790
   229  0000                     _PMD5	set	14789
   230  0000                     _PMD4	set	14788
   231  0000                     _PMD3	set	14787
   232  0000                     _PMD2	set	14786
   233  0000                     _PMD1	set	14785
   234  0000                     _I2C2STAT1bits	set	15714
   235  0000                     _I2C2ERR	set	15712
   236  0000                     _I2C2PIR	set	15715
   237  0000                     _I2C2CLK	set	15717
   238  0000                     _I2C2CON2	set	15711
   239  0000                     _I2C2CON1	set	15710
   240  0000                     _PIR7bits	set	14759
   241  000827  00                 	db	0	; dummy byte at the end
   242  0000                     
   243                           ; #config settings
   244                           
   245                           	psect	cinit
   246  001014                     __pcinit:
   247                           	callstack 0
   248  001014                     start_initialization:
   249                           	callstack 0
   250  001014                     __initialization:
   251                           	callstack 0
   252                           
   253                           ; Initialize objects allocated to COMRAM (6 bytes)
   254                           ; load TBLPTR registers with __pidataCOMRAM
   255  001014  0EC8               	movlw	low __pidataCOMRAM
   256  001016  6EF6               	movwf	tblptrl,c
   257  001018  0E13               	movlw	high __pidataCOMRAM
   258  00101A  6EF7               	movwf	tblptrh,c
   259  00101C  0E00               	movlw	low (__pidataCOMRAM shr (0+16))
   260  00101E  6EF8               	movwf	tblptru,c
   261  001020  EE00  F047         	lfsr	0,__pdataCOMRAM
   262  001024  EE10 F006          	lfsr	1,6
   263  001028                     copy_data0:
   264  001028  0009               	tblrd		*+
   265  00102A  006F FFD7 FFEE     	movff	tablat,postinc0
   266  001030  50E5               	movf	postdec1,w,c
   267  001032  50E1               	movf	fsr1l,w,c
   268  001034  E1F9               	bnz	copy_data0
   269                           
   270                           ; Clear objects allocated to COMRAM (44 bytes)
   271  001036  EE00  F001         	lfsr	0,__pbssCOMRAM
   272  00103A  0E2C               	movlw	44
   273  00103C                     clear_0:
   274  00103C  6AEE               	clrf	postinc0,c
   275  00103E  06E8               	decf	wreg,f,c
   276  001040  E1FD               	bnz	clear_0
   277  001042                     end_of_initialization:
   278                           	callstack 0
   279  001042                     __end_of__initialization:
   280                           	callstack 0
   281  001042  0E00               	movlw	low (__Lmediumconst shr (0+16))
   282  001044  6EF8               	movwf	tblptru,c
   283  001046  0100               	movlb	0
   284  001048  EFC9  F005         	goto	_main	;jump to C main() function
   285                           
   286                           	psect	bssCOMRAM
   287  000001                     __pbssCOMRAM:
   288                           	callstack 0
   289  000001                     _I2C2_Status:
   290                           	callstack 0
   291  000001                     	ds	36
   292  000025                     _i2c_memory_config:
   293                           	callstack 0
   294  000025                     	ds	2
   295  000027                     _i2c_memory_index:
   296                           	callstack 0
   297  000027                     	ds	2
   298  000029                     _i2c_read_data:
   299                           	callstack 0
   300  000029                     	ds	4
   301                           
   302                           	psect	dataCOMRAM
   303  000047                     __pdataCOMRAM:
   304                           	callstack 0
   305  000047                     _i2c_send_data:
   306                           	callstack 0
   307  000047                     	ds	6
   308                           
   309                           	psect	cstackCOMRAM
   310  00002D                     __pcstackCOMRAM:
   311                           	callstack 0
   312  00002D                     I2C2_Open@address:
   313                           	callstack 0
   314  00002D                     I2C2_Close@returnValue:
   315                           	callstack 0
   316  00002D                     I2C2_MasterSendTxData@data:
   317                           	callstack 0
   318  00002D                     I2C2_MasterSetCounter@counter:
   319                           	callstack 0
   320  00002D                     I2C2_SetBuffer@buffer:
   321                           	callstack 0
   322  00002D                     I2C2_SetCallback@cb:
   323                           	callstack 0
   324                           
   325                           ; 2 bytes @ 0x0
   326  00002D                     	ds	1
   327  00002E                     I2C2_Open@returnValue:
   328                           	callstack 0
   329                           
   330                           ; 1 bytes @ 0x1
   331  00002E                     	ds	1
   332  00002F                     I2C2_SetBuffer@bufferSize:
   333                           	callstack 0
   334  00002F                     I2C2_SetCallback@ptr:
   335                           	callstack 0
   336                           
   337                           ; 2 bytes @ 0x2
   338  00002F                     	ds	2
   339  000031                     I2C2_SetCallback@idx:
   340                           	callstack 0
   341                           
   342                           ; 1 bytes @ 0x4
   343  000031                     	ds	1
   344  000032                     I2C2_SetDataCompleteCallback@cb:
   345                           	callstack 0
   346  000032                     I2C2_SetAddressNackCallback@cb:
   347                           	callstack 0
   348                           
   349                           ; 2 bytes @ 0x5
   350  000032                     	ds	2
   351  000034                     I2C2_SetDataCompleteCallback@ptr:
   352                           	callstack 0
   353  000034                     I2C2_SetAddressNackCallback@ptr:
   354                           	callstack 0
   355                           
   356                           ; 2 bytes @ 0x7
   357  000034                     	ds	2
   358  000036                     rd1RegCompleteHandler@ptr:
   359                           	callstack 0
   360  000036                     rd2RegCompleteHandler@ptr:
   361                           	callstack 0
   362  000036                     wr1RegCompleteHandler@ptr:
   363                           	callstack 0
   364  000036                     wr2RegCompleteHandler@ptr:
   365                           	callstack 0
   366  000036                     rdBlkRegCompleteHandler@ptr:
   367                           	callstack 0
   368  000036                     I2C2_CallbackReturnReset@funPtr:
   369                           	callstack 0
   370                           
   371                           ; 2 bytes @ 0x9
   372  000036                     	ds	2
   373  000038                     ??_I2C2_DO_TX:
   374  000038                     ??_I2C2_DO_TX_EMPTY:
   375  000038                     ??_I2C2_DO_RX_EMPTY:
   376  000038                     ??_I2C2_DO_ADDRESS_NACK:
   377  000038                     ??_I2C2_DO_BUS_COLLISION:
   378  000038                     
   379                           ; 1 bytes @ 0xB
   380  000038                     	ds	2
   381  00003A                     ??_I2C2_DO_RX:
   382  00003A                     _I2C2_DO_TX$861:
   383                           	callstack 0
   384                           
   385                           ; 2 bytes @ 0xD
   386  00003A                     	ds	2
   387  00003C                     I2C2_DO_TX@dataTx:
   388                           	callstack 0
   389  00003C                     I2C2_DO_RX@retFsmState:
   390                           	callstack 0
   391                           
   392                           ; 1 bytes @ 0xF
   393  00003C                     	ds	1
   394  00003D                     I2C2_DO_TX@retFsmState:
   395                           	callstack 0
   396                           
   397                           ; 1 bytes @ 0x10
   398  00003D                     	ds	1
   399  00003E                     I2C2_MasterOperation@read:
   400                           	callstack 0
   401                           
   402                           ; 1 bytes @ 0x11
   403  00003E                     	ds	1
   404  00003F                     I2C2_MasterOperation@returnValue:
   405                           	callstack 0
   406                           
   407                           ; 1 bytes @ 0x12
   408  00003F                     	ds	1
   409  000040                     I2C2_WriteNBytes@data:
   410                           	callstack 0
   411  000040                     I2C2_ReadNBytes@data:
   412                           	callstack 0
   413                           
   414                           ; 2 bytes @ 0x13
   415  000040                     	ds	2
   416  000042                     I2C2_WriteNBytes@len:
   417                           	callstack 0
   418  000042                     I2C2_ReadNBytes@len:
   419                           	callstack 0
   420                           
   421                           ; 2 bytes @ 0x15
   422  000042                     	ds	2
   423  000044                     I2C2_WriteNBytes@address:
   424                           	callstack 0
   425  000044                     I2C2_ReadNBytes@address:
   426                           	callstack 0
   427                           
   428                           ; 1 bytes @ 0x17
   429  000044                     	ds	1
   430  000045                     ??_main:
   431                           
   432                           ; 1 bytes @ 0x18
   433  000045                     	ds	2
   434                           
   435 ;;
   436 ;;Main: autosize = 0, tempsize = 2, incstack = 0, save=0
   437 ;;
   438 ;; *************** function _main *****************
   439 ;; Defined at:
   440 ;;		line 56 in file "main.c"
   441 ;; Parameters:    Size  Location     Type
   442 ;;		None
   443 ;; Auto vars:     Size  Location     Type
   444 ;;		None
   445 ;; Return value:  Size  Location     Type
   446 ;;                  1    wreg      void 
   447 ;; Registers used:
   448 ;;		wreg, fsr2l, fsr2h, status,2, status,0, pcl, pclath, pclatu, tosl, tblptrl, tblptrh, tblptru, prodl, prodh, cstack
   449 ;; Tracked objects:
   450 ;;		On entry : 0/0
   451 ;;		On exit  : 0/0
   452 ;;		Unchanged: 0/0
   453 ;; Data sizes:     COMRAM   BANK0   BANK1   BANK2   BANK3   BANK4   BANK5   BANK6   BANK7
   454 ;;      Params:         0       0       0       0       0       0       0       0       0
   455 ;;      Locals:         0       0       0       0       0       0       0       0       0
   456 ;;      Temps:          2       0       0       0       0       0       0       0       0
   457 ;;      Totals:         2       0       0       0       0       0       0       0       0
   458 ;;Total ram usage:        2 bytes
   459 ;; Hardware stack levels required when called: 12
   460 ;; This function calls:
   461 ;;		_I2C2_ReadNBytes
   462 ;;		_I2C2_WriteNBytes
   463 ;;		_SYSTEM_Initialize
   464 ;; This function is called by:
   465 ;;		Startup code after reset
   466 ;; This function uses a non-reentrant model
   467 ;;
   468                           
   469                           	psect	text0
   470  000B92                     __ptext0:
   471                           	callstack 0
   472  000B92                     _main:
   473                           	callstack 19
   474  000B92                     
   475                           ;main.c: 59:     SYSTEM_Initialize();
   476  000B92  EC8E  F009         	call	_SYSTEM_Initialize	;wreg free
   477  000B96  88BC               	bsf	188,4,c	;volatile
   478  000B98                     
   479                           ;main.c: 77:     _delay((unsigned long)((1000)*(64000000/4000.0)));
   480  000B98  0E52               	movlw	82
   481  000B9A  6E46               	movwf	(??_main+1)^0,c
   482  000B9C  0E2B               	movlw	43
   483  000B9E  6E45               	movwf	??_main^0,c
   484  000BA0  0E00               	movlw	0
   485  000BA2                     u1007:
   486  000BA2  2EE8               	decfsz	wreg,f,c
   487  000BA4  D7FE               	bra	u1007
   488  000BA6  2E45               	decfsz	??_main^0,f,c
   489  000BA8  D7FC               	bra	u1007
   490  000BAA  2E46               	decfsz	(??_main+1)^0,f,c
   491  000BAC  D7FA               	bra	u1007
   492  000BAE  D000               	nop2	
   493  000BB0                     l2693:
   494                           
   495                           ;main.c: 80:     {;main.c: 83:         I2C2_WriteNBytes(0x50, i2c_send_data, 2);
   496  000BB0  0E47               	movlw	low _i2c_send_data
   497  000BB2  6E40               	movwf	I2C2_WriteNBytes@data^0,c
   498  000BB4  0E00               	movlw	high _i2c_send_data
   499  000BB6  6E41               	movwf	(I2C2_WriteNBytes@data+1)^0,c
   500  000BB8  0E00               	movlw	0
   501  000BBA  6E43               	movwf	(I2C2_WriteNBytes@len+1)^0,c
   502  000BBC  0E02               	movlw	2
   503  000BBE  6E42               	movwf	I2C2_WriteNBytes@len^0,c
   504  000BC0  0E50               	movlw	80
   505  000BC2  EC45  F007         	call	_I2C2_WriteNBytes
   506  000BC6                     
   507                           ;main.c: 84:         I2C2_ReadNBytes(0x50, i2c_read_data, sizeof(i2c_read_data));
   508  000BC6  0E29               	movlw	low _i2c_read_data
   509  000BC8  6E40               	movwf	I2C2_ReadNBytes@data^0,c
   510  000BCA  0E00               	movlw	high _i2c_read_data
   511  000BCC  6E41               	movwf	(I2C2_ReadNBytes@data+1)^0,c
   512  000BCE  0E00               	movlw	0
   513  000BD0  6E43               	movwf	(I2C2_ReadNBytes@len+1)^0,c
   514  000BD2  0E04               	movlw	4
   515  000BD4  6E42               	movwf	I2C2_ReadNBytes@len^0,c
   516  000BD6  0E50               	movlw	80
   517  000BD8  ECE7  F007         	call	_I2C2_ReadNBytes
   518  000BDC                     
   519                           ;main.c: 85:         _delay((unsigned long)((1)*(64000000/4000.0)));
   520  000BDC  0E15               	movlw	21
   521  000BDE  6E45               	movwf	??_main^0,c
   522  000BE0  0EC6               	movlw	198
   523  000BE2                     u1017:
   524  000BE2  2EE8               	decfsz	wreg,f,c
   525  000BE4  D7FE               	bra	u1017
   526  000BE6  2E45               	decfsz	??_main^0,f,c
   527  000BE8  D7FC               	bra	u1017
   528  000BEA  D000               	nop2	
   529  000BEC  98BC               	bcf	188,4,c	;volatile
   530  000BEE                     
   531                           ;main.c: 98:         if(i2c_read_data[0] == 0x04)
   532  000BEE  0E04               	movlw	4
   533  000BF0  1829               	xorwf	_i2c_read_data^0,w,c
   534  000BF2  A4D8               	btfss	status,2,c
   535  000BF4  EFFE  F005         	goto	u991
   536  000BF8  EF00  F006         	goto	u990
   537  000BFC                     u991:
   538  000BFC  EF03  F006         	goto	l659
   539  000C00                     u990:
   540  000C00  90BB               	bcf	187,0,c	;volatile
   541  000C02  EFD8  F005         	goto	l2693
   542  000C06                     l659:
   543  000C06  80BB               	bsf	187,0,c	;volatile
   544  000C08  EFD8  F005         	goto	l2693
   545  000C0C  EFFE  F03F         	goto	start
   546  000C10                     __end_of_main:
   547                           	callstack 0
   548                           
   549 ;; *************** function _SYSTEM_Initialize *****************
   550 ;; Defined at:
   551 ;;		line 50 in file "mcc_generated_files/mcc.c"
   552 ;; Parameters:    Size  Location     Type
   553 ;;		None
   554 ;; Auto vars:     Size  Location     Type
   555 ;;		None
   556 ;; Return value:  Size  Location     Type
   557 ;;                  1    wreg      void 
   558 ;; Registers used:
   559 ;;		wreg, status,2, cstack
   560 ;; Tracked objects:
   561 ;;		On entry : 0/0
   562 ;;		On exit  : 0/0
   563 ;;		Unchanged: 0/0
   564 ;; Data sizes:     COMRAM   BANK0   BANK1   BANK2   BANK3   BANK4   BANK5   BANK6   BANK7
   565 ;;      Params:         0       0       0       0       0       0       0       0       0
   566 ;;      Locals:         0       0       0       0       0       0       0       0       0
   567 ;;      Temps:          0       0       0       0       0       0       0       0       0
   568 ;;      Totals:         0       0       0       0       0       0       0       0       0
   569 ;;Total ram usage:        0 bytes
   570 ;; Hardware stack levels used: 1
   571 ;; Hardware stack levels required when called: 1
   572 ;; This function calls:
   573 ;;		_I2C2_Initialize
   574 ;;		_OSCILLATOR_Initialize
   575 ;;		_PIN_MANAGER_Initialize
   576 ;;		_PMD_Initialize
   577 ;; This function is called by:
   578 ;;		_main
   579 ;; This function uses a non-reentrant model
   580 ;;
   581                           
   582                           	psect	text1
   583  00131C                     __ptext1:
   584                           	callstack 0
   585  00131C                     _SYSTEM_Initialize:
   586                           	callstack 29
   587  00131C                     
   588                           ;mcc_generated_files/mcc.c: 52:     PMD_Initialize();
   589  00131C  ECBC  F008         	call	_PMD_Initialize	;wreg free
   590                           
   591                           ;mcc_generated_files/mcc.c: 53:     I2C2_Initialize();
   592  001320  ECCE  F008         	call	_I2C2_Initialize	;wreg free
   593                           
   594                           ;mcc_generated_files/mcc.c: 54:     PIN_MANAGER_Initialize();
   595  001324  ECB5  F006         	call	_PIN_MANAGER_Initialize	;wreg free
   596                           
   597                           ;mcc_generated_files/mcc.c: 55:     OSCILLATOR_Initialize();
   598  001328  EC1E  F009         	call	_OSCILLATOR_Initialize	;wreg free
   599  00132C  0012               	return		;funcret
   600  00132E                     __end_of_SYSTEM_Initialize:
   601                           	callstack 0
   602                           
   603 ;; *************** function _PMD_Initialize *****************
   604 ;; Defined at:
   605 ;;		line 72 in file "mcc_generated_files/mcc.c"
   606 ;; Parameters:    Size  Location     Type
   607 ;;		None
   608 ;; Auto vars:     Size  Location     Type
   609 ;;		None
   610 ;; Return value:  Size  Location     Type
   611 ;;                  1    wreg      void 
   612 ;; Registers used:
   613 ;;		wreg, status,2
   614 ;; Tracked objects:
   615 ;;		On entry : 0/0
   616 ;;		On exit  : 0/0
   617 ;;		Unchanged: 0/0
   618 ;; Data sizes:     COMRAM   BANK0   BANK1   BANK2   BANK3   BANK4   BANK5   BANK6   BANK7
   619 ;;      Params:         0       0       0       0       0       0       0       0       0
   620 ;;      Locals:         0       0       0       0       0       0       0       0       0
   621 ;;      Temps:          0       0       0       0       0       0       0       0       0
   622 ;;      Totals:         0       0       0       0       0       0       0       0       0
   623 ;;Total ram usage:        0 bytes
   624 ;; Hardware stack levels used: 1
   625 ;; This function calls:
   626 ;;		Nothing
   627 ;; This function is called by:
   628 ;;		_SYSTEM_Initialize
   629 ;; This function uses a non-reentrant model
   630 ;;
   631                           
   632                           	psect	text2
   633  001178                     __ptext2:
   634                           	callstack 0
   635  001178                     _PMD_Initialize:
   636                           	callstack 29
   637  001178                     
   638                           ;mcc_generated_files/mcc.c: 75:     PMD0 = 0x00;
   639  001178  0E00               	movlw	0
   640  00117A  0139               	movlb	57	; () banked
   641  00117C  6FC0               	movwf	192,b	;volatile
   642                           
   643                           ;mcc_generated_files/mcc.c: 77:     PMD1 = 0x00;
   644  00117E  0E00               	movlw	0
   645  001180  6FC1               	movwf	193,b	;volatile
   646                           
   647                           ;mcc_generated_files/mcc.c: 79:     PMD2 = 0x00;
   648  001182  0E00               	movlw	0
   649  001184  6FC2               	movwf	194,b	;volatile
   650                           
   651                           ;mcc_generated_files/mcc.c: 81:     PMD3 = 0x00;
   652  001186  0E00               	movlw	0
   653  001188  6FC3               	movwf	195,b	;volatile
   654                           
   655                           ;mcc_generated_files/mcc.c: 83:     PMD4 = 0x00;
   656  00118A  0E00               	movlw	0
   657  00118C  6FC4               	movwf	196,b	;volatile
   658                           
   659                           ;mcc_generated_files/mcc.c: 85:     PMD5 = 0x00;
   660  00118E  0E00               	movlw	0
   661  001190  6FC5               	movwf	197,b	;volatile
   662                           
   663                           ;mcc_generated_files/mcc.c: 87:     PMD6 = 0x00;
   664  001192  0E00               	movlw	0
   665  001194  6FC6               	movwf	198,b	;volatile
   666                           
   667                           ;mcc_generated_files/mcc.c: 89:     PMD7 = 0x00;
   668  001196  0E00               	movlw	0
   669  001198  6FC7               	movwf	199,b	;volatile
   670  00119A                     
   671                           ; BSR set to: 57
   672  00119A  0012               	return		;funcret
   673  00119C                     __end_of_PMD_Initialize:
   674                           	callstack 0
   675                           
   676 ;; *************** function _PIN_MANAGER_Initialize *****************
   677 ;; Defined at:
   678 ;;		line 55 in file "mcc_generated_files/pin_manager.c"
   679 ;; Parameters:    Size  Location     Type
   680 ;;		None
   681 ;; Auto vars:     Size  Location     Type
   682 ;;		None
   683 ;; Return value:  Size  Location     Type
   684 ;;                  1    wreg      void 
   685 ;; Registers used:
   686 ;;		wreg, status,2
   687 ;; Tracked objects:
   688 ;;		On entry : 0/0
   689 ;;		On exit  : 0/0
   690 ;;		Unchanged: 0/0
   691 ;; Data sizes:     COMRAM   BANK0   BANK1   BANK2   BANK3   BANK4   BANK5   BANK6   BANK7
   692 ;;      Params:         0       0       0       0       0       0       0       0       0
   693 ;;      Locals:         0       0       0       0       0       0       0       0       0
   694 ;;      Temps:          0       0       0       0       0       0       0       0       0
   695 ;;      Totals:         0       0       0       0       0       0       0       0       0
   696 ;;Total ram usage:        0 bytes
   697 ;; Hardware stack levels used: 1
   698 ;; This function calls:
   699 ;;		Nothing
   700 ;; This function is called by:
   701 ;;		_SYSTEM_Initialize
   702 ;; This function uses a non-reentrant model
   703 ;;
   704                           
   705                           	psect	text3
   706  000D6A                     __ptext3:
   707                           	callstack 0
   708  000D6A                     _PIN_MANAGER_Initialize:
   709                           	callstack 29
   710  000D6A                     
   711                           ;mcc_generated_files/pin_manager.c: 60:     LATA = 0x00;
   712  000D6A  0E00               	movlw	0
   713  000D6C  6EBA               	movwf	186,c	;volatile
   714                           
   715                           ;mcc_generated_files/pin_manager.c: 61:     LATB = 0x00;
   716  000D6E  0E00               	movlw	0
   717  000D70  6EBB               	movwf	187,c	;volatile
   718                           
   719                           ;mcc_generated_files/pin_manager.c: 62:     LATC = 0x00;
   720  000D72  0E00               	movlw	0
   721  000D74  6EBC               	movwf	188,c	;volatile
   722  000D76                     
   723                           ;mcc_generated_files/pin_manager.c: 67:     TRISA = 0xFF;
   724  000D76  68C2               	setf	194,c	;volatile
   725                           
   726                           ;mcc_generated_files/pin_manager.c: 68:     TRISB = 0xF8;
   727  000D78  0EF8               	movlw	248
   728  000D7A  6EC3               	movwf	195,c	;volatile
   729                           
   730                           ;mcc_generated_files/pin_manager.c: 69:     TRISC = 0xC9;
   731  000D7C  0EC9               	movlw	201
   732  000D7E  6EC4               	movwf	196,c	;volatile
   733                           
   734                           ;mcc_generated_files/pin_manager.c: 77:     ANSELC = 0x00;
   735  000D80  0E00               	movlw	0
   736  000D82  013A               	movlb	58	; () banked
   737  000D84  6F60               	movwf	96,b	;volatile
   738                           
   739                           ;mcc_generated_files/pin_manager.c: 78:     ANSELB = 0x00;
   740  000D86  0E00               	movlw	0
   741  000D88  6F50               	movwf	80,b	;volatile
   742                           
   743                           ;mcc_generated_files/pin_manager.c: 79:     ANSELA = 0x00;
   744  000D8A  0E00               	movlw	0
   745  000D8C  6F40               	movwf	64,b	;volatile
   746                           
   747                           ;mcc_generated_files/pin_manager.c: 84:     WPUE = 0x00;
   748  000D8E  0E00               	movlw	0
   749  000D90  6F81               	movwf	129,b	;volatile
   750                           
   751                           ;mcc_generated_files/pin_manager.c: 85:     WPUB = 0x00;
   752  000D92  0E00               	movlw	0
   753  000D94  6F51               	movwf	81,b	;volatile
   754                           
   755                           ;mcc_generated_files/pin_manager.c: 86:     WPUA = 0x00;
   756  000D96  0E00               	movlw	0
   757  000D98  6F41               	movwf	65,b	;volatile
   758                           
   759                           ;mcc_generated_files/pin_manager.c: 87:     WPUC = 0x00;
   760  000D9A  0E00               	movlw	0
   761  000D9C  6F61               	movwf	97,b	;volatile
   762                           
   763                           ;mcc_generated_files/pin_manager.c: 92:     ODCONA = 0x00;
   764  000D9E  0E00               	movlw	0
   765  000DA0  6F42               	movwf	66,b	;volatile
   766                           
   767                           ;mcc_generated_files/pin_manager.c: 93:     ODCONB = 0x06;
   768  000DA2  0E06               	movlw	6
   769  000DA4  6F52               	movwf	82,b	;volatile
   770                           
   771                           ;mcc_generated_files/pin_manager.c: 94:     ODCONC = 0x08;
   772  000DA6  0E08               	movlw	8
   773  000DA8  6F62               	movwf	98,b	;volatile
   774  000DAA                     
   775                           ; BSR set to: 58
   776                           ;mcc_generated_files/pin_manager.c: 99:     SLRCONA = 0xFF;
   777  000DAA  6943               	setf	67,b	;volatile
   778  000DAC                     
   779                           ; BSR set to: 58
   780                           ;mcc_generated_files/pin_manager.c: 100:     SLRCONB = 0xFF;
   781  000DAC  6953               	setf	83,b	;volatile
   782  000DAE                     
   783                           ; BSR set to: 58
   784                           ;mcc_generated_files/pin_manager.c: 101:     SLRCONC = 0xFF;
   785  000DAE  6963               	setf	99,b	;volatile
   786  000DB0                     
   787                           ; BSR set to: 58
   788                           ;mcc_generated_files/pin_manager.c: 106:     INLVLA = 0xFF;
   789  000DB0  6944               	setf	68,b	;volatile
   790  000DB2                     
   791                           ; BSR set to: 58
   792                           ;mcc_generated_files/pin_manager.c: 107:     INLVLB = 0xFF;
   793  000DB2  6954               	setf	84,b	;volatile
   794  000DB4                     
   795                           ; BSR set to: 58
   796                           ;mcc_generated_files/pin_manager.c: 108:     INLVLC = 0xFF;
   797  000DB4  6964               	setf	100,b	;volatile
   798                           
   799                           ;mcc_generated_files/pin_manager.c: 109:     INLVLE = 0x08;
   800  000DB6  0E08               	movlw	8
   801  000DB8  6F84               	movwf	132,b	;volatile
   802                           
   803                           ;mcc_generated_files/pin_manager.c: 118:     I2C2SCLPPS = 0x09;
   804  000DBA  0E09               	movlw	9
   805  000DBC  6FE5               	movwf	229,b	;volatile
   806                           
   807                           ;mcc_generated_files/pin_manager.c: 119:     RB1PPS = 0x23;
   808  000DBE  0E23               	movlw	35
   809  000DC0  6F09               	movwf	9,b	;volatile
   810                           
   811                           ;mcc_generated_files/pin_manager.c: 120:     RB2PPS = 0x24;
   812  000DC2  0E24               	movlw	36
   813  000DC4  6F0A               	movwf	10,b	;volatile
   814                           
   815                           ;mcc_generated_files/pin_manager.c: 121:     I2C2SDAPPS = 0x0A;
   816  000DC6  0E0A               	movlw	10
   817  000DC8  6FE6               	movwf	230,b	;volatile
   818  000DCA                     
   819                           ; BSR set to: 58
   820  000DCA  0012               	return		;funcret
   821  000DCC                     __end_of_PIN_MANAGER_Initialize:
   822                           	callstack 0
   823                           
   824 ;; *************** function _OSCILLATOR_Initialize *****************
   825 ;; Defined at:
   826 ;;		line 58 in file "mcc_generated_files/mcc.c"
   827 ;; Parameters:    Size  Location     Type
   828 ;;		None
   829 ;; Auto vars:     Size  Location     Type
   830 ;;		None
   831 ;; Return value:  Size  Location     Type
   832 ;;                  1    wreg      void 
   833 ;; Registers used:
   834 ;;		wreg, status,2
   835 ;; Tracked objects:
   836 ;;		On entry : 0/0
   837 ;;		On exit  : 0/0
   838 ;;		Unchanged: 0/0
   839 ;; Data sizes:     COMRAM   BANK0   BANK1   BANK2   BANK3   BANK4   BANK5   BANK6   BANK7
   840 ;;      Params:         0       0       0       0       0       0       0       0       0
   841 ;;      Locals:         0       0       0       0       0       0       0       0       0
   842 ;;      Temps:          0       0       0       0       0       0       0       0       0
   843 ;;      Totals:         0       0       0       0       0       0       0       0       0
   844 ;;Total ram usage:        0 bytes
   845 ;; Hardware stack levels used: 1
   846 ;; This function calls:
   847 ;;		Nothing
   848 ;; This function is called by:
   849 ;;		_SYSTEM_Initialize
   850 ;; This function uses a non-reentrant model
   851 ;;
   852                           
   853                           	psect	text4
   854  00123C                     __ptext4:
   855                           	callstack 0
   856  00123C                     _OSCILLATOR_Initialize:
   857                           	callstack 29
   858  00123C                     
   859                           ;mcc_generated_files/mcc.c: 61:     OSCCON1 = 0x60;
   860  00123C  0E60               	movlw	96
   861  00123E  0139               	movlb	57	; () banked
   862  001240  6FD9               	movwf	217,b	;volatile
   863                           
   864                           ;mcc_generated_files/mcc.c: 63:     OSCCON3 = 0x00;
   865  001242  0E00               	movlw	0
   866  001244  6FDB               	movwf	219,b	;volatile
   867                           
   868                           ;mcc_generated_files/mcc.c: 65:     OSCEN = 0x00;
   869  001246  0E00               	movlw	0
   870  001248  6FDD               	movwf	221,b	;volatile
   871                           
   872                           ;mcc_generated_files/mcc.c: 67:     OSCFRQ = 0x08;
   873  00124A  0E08               	movlw	8
   874  00124C  6FDF               	movwf	223,b	;volatile
   875                           
   876                           ;mcc_generated_files/mcc.c: 69:     OSCTUNE = 0x00;
   877  00124E  0E00               	movlw	0
   878  001250  6FDE               	movwf	222,b	;volatile
   879  001252                     
   880                           ; BSR set to: 57
   881  001252  0012               	return		;funcret
   882  001254                     __end_of_OSCILLATOR_Initialize:
   883                           	callstack 0
   884                           
   885 ;; *************** function _I2C2_Initialize *****************
   886 ;; Defined at:
   887 ;;		line 183 in file "mcc_generated_files/i2c2_master.c"
   888 ;; Parameters:    Size  Location     Type
   889 ;;		None
   890 ;; Auto vars:     Size  Location     Type
   891 ;;		None
   892 ;; Return value:  Size  Location     Type
   893 ;;                  1    wreg      void 
   894 ;; Registers used:
   895 ;;		wreg, status,2
   896 ;; Tracked objects:
   897 ;;		On entry : 0/0
   898 ;;		On exit  : 0/0
   899 ;;		Unchanged: 0/0
   900 ;; Data sizes:     COMRAM   BANK0   BANK1   BANK2   BANK3   BANK4   BANK5   BANK6   BANK7
   901 ;;      Params:         0       0       0       0       0       0       0       0       0
   902 ;;      Locals:         0       0       0       0       0       0       0       0       0
   903 ;;      Temps:          0       0       0       0       0       0       0       0       0
   904 ;;      Totals:         0       0       0       0       0       0       0       0       0
   905 ;;Total ram usage:        0 bytes
   906 ;; Hardware stack levels used: 1
   907 ;; This function calls:
   908 ;;		Nothing
   909 ;; This function is called by:
   910 ;;		_SYSTEM_Initialize
   911 ;; This function uses a non-reentrant model
   912 ;;
   913                           
   914                           	psect	text5
   915  00119C                     __ptext5:
   916                           	callstack 0
   917  00119C                     _I2C2_Initialize:
   918                           	callstack 29
   919  00119C                     
   920                           ;mcc_generated_files/i2c2_master.c: 186:     I2C2CON0 = 0x24;
   921  00119C  0E24               	movlw	36
   922  00119E  013D               	movlb	61	; () banked
   923  0011A0  6F5D               	movwf	93,b	;volatile
   924                           
   925                           ;mcc_generated_files/i2c2_master.c: 188:     I2C2CON1 = 0x80;
   926  0011A2  0E80               	movlw	128
   927  0011A4  6F5E               	movwf	94,b	;volatile
   928                           
   929                           ;mcc_generated_files/i2c2_master.c: 190:     I2C2CON2 = 0x10;
   930  0011A6  0E10               	movlw	16
   931  0011A8  6F5F               	movwf	95,b	;volatile
   932                           
   933                           ;mcc_generated_files/i2c2_master.c: 192:     I2C2CLK = 0x03;
   934  0011AA  0E03               	movlw	3
   935  0011AC  6F65               	movwf	101,b	;volatile
   936                           
   937                           ;mcc_generated_files/i2c2_master.c: 194:     I2C2PIR = 0x00;
   938  0011AE  0E00               	movlw	0
   939  0011B0  6F63               	movwf	99,b	;volatile
   940                           
   941                           ;mcc_generated_files/i2c2_master.c: 196:     I2C2PIE = 0x00;
   942  0011B2  0E00               	movlw	0
   943  0011B4  6F64               	movwf	100,b	;volatile
   944                           
   945                           ;mcc_generated_files/i2c2_master.c: 198:     I2C2ERR = 0x00;
   946  0011B6  0E00               	movlw	0
   947  0011B8  6F60               	movwf	96,b	;volatile
   948  0011BA                     
   949                           ; BSR set to: 61
   950                           ;mcc_generated_files/i2c2_master.c: 200:     I2C2CNT = 0xFF;
   951  0011BA  6956               	setf	86,b	;volatile
   952  0011BC                     
   953                           ; BSR set to: 61
   954  0011BC  0012               	return		;funcret
   955  0011BE                     __end_of_I2C2_Initialize:
   956                           	callstack 0
   957                           
   958 ;; *************** function _I2C2_WriteNBytes *****************
   959 ;; Defined at:
   960 ;;		line 111 in file "mcc_generated_files/examples/i2c2_master_example.c"
   961 ;; Parameters:    Size  Location     Type
   962 ;;  address         1    wreg     unsigned char 
   963 ;;  data            2   19[COMRAM] PTR unsigned char 
   964 ;;		 -> i2c_send_data(6), 
   965 ;;  len             2   21[COMRAM] unsigned int 
   966 ;; Auto vars:     Size  Location     Type
   967 ;;  address         1   23[COMRAM] unsigned char 
   968 ;; Return value:  Size  Location     Type
   969 ;;                  1    wreg      void 
   970 ;; Registers used:
   971 ;;		wreg, fsr2l, fsr2h, status,2, status,0, pcl, pclath, pclatu, tosl, tblptrl, tblptrh, tblptru, prodl, prodh, cstack
   972 ;; Tracked objects:
   973 ;;		On entry : 0/0
   974 ;;		On exit  : 0/0
   975 ;;		Unchanged: 0/0
   976 ;; Data sizes:     COMRAM   BANK0   BANK1   BANK2   BANK3   BANK4   BANK5   BANK6   BANK7
   977 ;;      Params:         4       0       0       0       0       0       0       0       0
   978 ;;      Locals:         1       0       0       0       0       0       0       0       0
   979 ;;      Temps:          0       0       0       0       0       0       0       0       0
   980 ;;      Totals:         5       0       0       0       0       0       0       0       0
   981 ;;Total ram usage:        5 bytes
   982 ;; Hardware stack levels used: 1
   983 ;; Hardware stack levels required when called: 11
   984 ;; This function calls:
   985 ;;		_I2C2_Close
   986 ;;		_I2C2_MasterWrite
   987 ;;		_I2C2_Open
   988 ;;		_I2C2_SetAddressNackCallback
   989 ;;		_I2C2_SetBuffer
   990 ;; This function is called by:
   991 ;;		_main
   992 ;; This function uses a non-reentrant model
   993 ;;
   994                           
   995                           	psect	text6
   996  000E8A                     __ptext6:
   997                           	callstack 0
   998  000E8A                     _I2C2_WriteNBytes:
   999                           	callstack 19
  1000                           
  1001                           ; BSR set to: 61
  1002                           ;incstack = 0
  1003                           ;I2C2_WriteNBytes@address stored from wreg
  1004  000E8A  6E44               	movwf	I2C2_WriteNBytes@address^0,c
  1005  000E8C                     l2591:
  1006  000E8C  5044               	movf	I2C2_WriteNBytes@address^0,w,c
  1007  000E8E  EC41  F005         	call	_I2C2_Open
  1008  000E92  0900               	iorlw	0
  1009  000E94  B4D8               	btfsc	status,2,c
  1010  000E96  EF4F  F007         	goto	u851
  1011  000E9A  EF51  F007         	goto	u850
  1012  000E9E                     u851:
  1013  000E9E  EF46  F007         	goto	l2591
  1014  000EA2                     u850:
  1015  000EA2                     
  1016                           ;mcc_generated_files/examples/i2c2_master_example.c: 114:     I2C2_SetBuffer(data,len);
  1017  000EA2  C040  F02D         	movff	I2C2_WriteNBytes@data,I2C2_SetBuffer@buffer
  1018  000EA6  C041  F02E         	movff	I2C2_WriteNBytes@data+1,I2C2_SetBuffer@buffer+1
  1019  000EAA  C042  F02F         	movff	I2C2_WriteNBytes@len,I2C2_SetBuffer@bufferSize
  1020  000EAE  C043  F030         	movff	I2C2_WriteNBytes@len+1,I2C2_SetBuffer@bufferSize+1
  1021  000EB2  ECF0  F008         	call	_I2C2_SetBuffer	;wreg free
  1022  000EB6                     
  1023                           ;mcc_generated_files/examples/i2c2_master_example.c: 115:     I2C2_SetAddressNackCallbac
      +                          k(((void*)0),((void*)0));
  1024  000EB6  0E00               	movlw	0
  1025  000EB8  6E32               	movwf	I2C2_SetAddressNackCallback@cb^0,c
  1026  000EBA  0E00               	movlw	0
  1027  000EBC  6E33               	movwf	(I2C2_SetAddressNackCallback@cb+1)^0,c
  1028  000EBE  0E00               	movlw	0
  1029  000EC0  6E34               	movwf	I2C2_SetAddressNackCallback@ptr^0,c
  1030  000EC2  0E00               	movlw	0
  1031  000EC4  6E35               	movwf	(I2C2_SetAddressNackCallback@ptr+1)^0,c
  1032  000EC6  EC2A  F009         	call	_I2C2_SetAddressNackCallback	;wreg free
  1033  000ECA                     
  1034                           ;mcc_generated_files/examples/i2c2_master_example.c: 116:     I2C2_MasterWrite();
  1035  000ECA  ECCC  F009         	call	_I2C2_MasterWrite	;wreg free
  1036  000ECE                     l2599:
  1037  000ECE  EC93  F008         	call	_I2C2_Close	;wreg free
  1038  000ED2  06E8               	decf	wreg,f,c
  1039  000ED4  B4D8               	btfsc	status,2,c
  1040  000ED6  EF6F  F007         	goto	u861
  1041  000EDA  EF71  F007         	goto	u860
  1042  000EDE                     u861:
  1043  000EDE  EF67  F007         	goto	l2599
  1044  000EE2                     u860:
  1045  000EE2  0012               	return		;funcret
  1046  000EE4                     __end_of_I2C2_WriteNBytes:
  1047                           	callstack 0
  1048                           
  1049 ;; *************** function _I2C2_SetAddressNackCallback *****************
  1050 ;; Defined at:
  1051 ;;		line 313 in file "mcc_generated_files/i2c2_master.c"
  1052 ;; Parameters:    Size  Location     Type
  1053 ;;  cb              2    5[COMRAM] PTR FTN(PTR void ,)enum 
  1054 ;;		 -> Absolute function(1), 
  1055 ;;  ptr             2    7[COMRAM] PTR void 
  1056 ;;		 -> NULL(0), 
  1057 ;; Auto vars:     Size  Location     Type
  1058 ;;		None
  1059 ;; Return value:  Size  Location     Type
  1060 ;;                  1    wreg      void 
  1061 ;; Registers used:
  1062 ;;		wreg, fsr2l, fsr2h, status,2, status,0, prodl, prodh, cstack
  1063 ;; Tracked objects:
  1064 ;;		On entry : 0/0
  1065 ;;		On exit  : 0/0
  1066 ;;		Unchanged: 0/0
  1067 ;; Data sizes:     COMRAM   BANK0   BANK1   BANK2   BANK3   BANK4   BANK5   BANK6   BANK7
  1068 ;;      Params:         4       0       0       0       0       0       0       0       0
  1069 ;;      Locals:         0       0       0       0       0       0       0       0       0
  1070 ;;      Temps:          0       0       0       0       0       0       0       0       0
  1071 ;;      Totals:         4       0       0       0       0       0       0       0       0
  1072 ;;Total ram usage:        4 bytes
  1073 ;; Hardware stack levels used: 1
  1074 ;; Hardware stack levels required when called: 1
  1075 ;; This function calls:
  1076 ;;		_I2C2_SetCallback
  1077 ;; This function is called by:
  1078 ;;		_I2C2_WriteNBytes
  1079 ;;		_I2C2_Read1ByteRegister
  1080 ;;		_I2C2_Read2ByteRegister
  1081 ;;		_I2C2_Write1ByteRegister
  1082 ;;		_I2C2_Write2ByteRegister
  1083 ;;		_I2C2_ReadDataBlock
  1084 ;; This function uses a non-reentrant model
  1085 ;;
  1086                           
  1087                           	psect	text7
  1088  001254                     __ptext7:
  1089                           	callstack 0
  1090  001254                     _I2C2_SetAddressNackCallback:
  1091                           	callstack 28
  1092  001254                     
  1093                           ;mcc_generated_files/i2c2_master.c: 313: void I2C2_SetAddressNackCallback(i2c2_callback_
      +                          t cb, void *ptr);mcc_generated_files/i2c2_master.c: 314: {;mcc_generated_files/i2c2_mast
      +                          er.c: 315:     I2C2_SetCallback(I2C2_ADDR_NACK, cb, ptr);
  1094  001254  C032  F02D         	movff	I2C2_SetAddressNackCallback@cb,I2C2_SetCallback@cb
  1095  001258  C033  F02E         	movff	I2C2_SetAddressNackCallback@cb+1,I2C2_SetCallback@cb+1
  1096  00125C  C034  F02F         	movff	I2C2_SetAddressNackCallback@ptr,I2C2_SetCallback@ptr
  1097  001260  C035  F030         	movff	I2C2_SetAddressNackCallback@ptr+1,I2C2_SetCallback@ptr+1
  1098  001264  0E02               	movlw	2
  1099  001266  EC88  F005         	call	_I2C2_SetCallback
  1100  00126A  0012               	return		;funcret
  1101  00126C                     __end_of_I2C2_SetAddressNackCallback:
  1102                           	callstack 0
  1103                           
  1104 ;; *************** function _I2C2_MasterWrite *****************
  1105 ;; Defined at:
  1106 ;;		line 281 in file "mcc_generated_files/i2c2_master.c"
  1107 ;; Parameters:    Size  Location     Type
  1108 ;;		None
  1109 ;; Auto vars:     Size  Location     Type
  1110 ;;		None
  1111 ;; Return value:  Size  Location     Type
  1112 ;;                  1    wreg      enum E355
  1113 ;; Registers used:
  1114 ;;		wreg, fsr2l, fsr2h, status,2, status,0, pcl, pclath, pclatu, tosl, tblptrl, tblptrh, tblptru, prodl, prodh, cstack
  1115 ;; Tracked objects:
  1116 ;;		On entry : 0/0
  1117 ;;		On exit  : 0/0
  1118 ;;		Unchanged: 0/0
  1119 ;; Data sizes:     COMRAM   BANK0   BANK1   BANK2   BANK3   BANK4   BANK5   BANK6   BANK7
  1120 ;;      Params:         0       0       0       0       0       0       0       0       0
  1121 ;;      Locals:         0       0       0       0       0       0       0       0       0
  1122 ;;      Temps:          0       0       0       0       0       0       0       0       0
  1123 ;;      Totals:         0       0       0       0       0       0       0       0       0
  1124 ;;Total ram usage:        0 bytes
  1125 ;; Hardware stack levels used: 1
  1126 ;; Hardware stack levels required when called: 10
  1127 ;; This function calls:
  1128 ;;		_I2C2_MasterOperation
  1129 ;; This function is called by:
  1130 ;;		_I2C2_WriteNBytes
  1131 ;;		_I2C2_Read1ByteRegister
  1132 ;;		_I2C2_Read2ByteRegister
  1133 ;;		_I2C2_Write1ByteRegister
  1134 ;;		_I2C2_Write2ByteRegister
  1135 ;;		_I2C2_ReadDataBlock
  1136 ;; This function uses a non-reentrant model
  1137 ;;
  1138                           
  1139                           	psect	text8
  1140  001398                     __ptext8:
  1141                           	callstack 0
  1142  001398                     _I2C2_MasterWrite:
  1143                           	callstack 19
  1144  001398                     
  1145                           ;mcc_generated_files/i2c2_master.c: 283:     return I2C2_MasterOperation(0);;	Return val
      +                          ue of _I2C2_MasterWrite is never used
  1146  001398  0E00               	movlw	0
  1147  00139A  EC9B  F007         	call	_I2C2_MasterOperation
  1148  00139E  0012               	return		;funcret
  1149  0013A0                     __end_of_I2C2_MasterWrite:
  1150                           	callstack 0
  1151                           
  1152 ;; *************** function _I2C2_ReadNBytes *****************
  1153 ;; Defined at:
  1154 ;;		line 120 in file "mcc_generated_files/examples/i2c2_master_example.c"
  1155 ;; Parameters:    Size  Location     Type
  1156 ;;  address         1    wreg     unsigned char 
  1157 ;;  data            2   19[COMRAM] PTR unsigned char 
  1158 ;;		 -> i2c_read_data(4), 
  1159 ;;  len             2   21[COMRAM] unsigned int 
  1160 ;; Auto vars:     Size  Location     Type
  1161 ;;  address         1   23[COMRAM] unsigned char 
  1162 ;; Return value:  Size  Location     Type
  1163 ;;                  1    wreg      void 
  1164 ;; Registers used:
  1165 ;;		wreg, fsr2l, fsr2h, status,2, status,0, pcl, pclath, pclatu, tosl, tblptrl, tblptrh, tblptru, prodl, prodh, cstack
  1166 ;; Tracked objects:
  1167 ;;		On entry : 0/0
  1168 ;;		On exit  : 0/0
  1169 ;;		Unchanged: 0/0
  1170 ;; Data sizes:     COMRAM   BANK0   BANK1   BANK2   BANK3   BANK4   BANK5   BANK6   BANK7
  1171 ;;      Params:         4       0       0       0       0       0       0       0       0
  1172 ;;      Locals:         1       0       0       0       0       0       0       0       0
  1173 ;;      Temps:          0       0       0       0       0       0       0       0       0
  1174 ;;      Totals:         5       0       0       0       0       0       0       0       0
  1175 ;;Total ram usage:        5 bytes
  1176 ;; Hardware stack levels used: 1
  1177 ;; Hardware stack levels required when called: 11
  1178 ;; This function calls:
  1179 ;;		_I2C2_Close
  1180 ;;		_I2C2_MasterRead
  1181 ;;		_I2C2_Open
  1182 ;;		_I2C2_SetBuffer
  1183 ;; This function is called by:
  1184 ;;		_main
  1185 ;; This function uses a non-reentrant model
  1186 ;;
  1187                           
  1188                           	psect	text9
  1189  000FCE                     __ptext9:
  1190                           	callstack 0
  1191  000FCE                     _I2C2_ReadNBytes:
  1192                           	callstack 19
  1193                           
  1194                           ;incstack = 0
  1195                           ;I2C2_ReadNBytes@address stored from wreg
  1196  000FCE  6E44               	movwf	I2C2_ReadNBytes@address^0,c
  1197  000FD0                     l2603:
  1198  000FD0  5044               	movf	I2C2_ReadNBytes@address^0,w,c
  1199  000FD2  EC41  F005         	call	_I2C2_Open
  1200  000FD6  0900               	iorlw	0
  1201  000FD8  B4D8               	btfsc	status,2,c
  1202  000FDA  EFF1  F007         	goto	u871
  1203  000FDE  EFF3  F007         	goto	u870
  1204  000FE2                     u871:
  1205  000FE2  EFE8  F007         	goto	l2603
  1206  000FE6                     u870:
  1207  000FE6                     
  1208                           ;mcc_generated_files/examples/i2c2_master_example.c: 123:     I2C2_SetBuffer(data,len);
  1209  000FE6  C040  F02D         	movff	I2C2_ReadNBytes@data,I2C2_SetBuffer@buffer
  1210  000FEA  C041  F02E         	movff	I2C2_ReadNBytes@data+1,I2C2_SetBuffer@buffer+1
  1211  000FEE  C042  F02F         	movff	I2C2_ReadNBytes@len,I2C2_SetBuffer@bufferSize
  1212  000FF2  C043  F030         	movff	I2C2_ReadNBytes@len+1,I2C2_SetBuffer@bufferSize+1
  1213  000FF6  ECF0  F008         	call	_I2C2_SetBuffer	;wreg free
  1214  000FFA                     
  1215                           ;mcc_generated_files/examples/i2c2_master_example.c: 124:     I2C2_MasterRead();
  1216  000FFA  ECD0  F009         	call	_I2C2_MasterRead	;wreg free
  1217  000FFE                     l2609:
  1218  000FFE  EC93  F008         	call	_I2C2_Close	;wreg free
  1219  001002  06E8               	decf	wreg,f,c
  1220  001004  B4D8               	btfsc	status,2,c
  1221  001006  EF07  F008         	goto	u881
  1222  00100A  EF09  F008         	goto	u880
  1223  00100E                     u881:
  1224  00100E  EFFF  F007         	goto	l2609
  1225  001012                     u880:
  1226  001012  0012               	return		;funcret
  1227  001014                     __end_of_I2C2_ReadNBytes:
  1228                           	callstack 0
  1229                           
  1230 ;; *************** function _I2C2_Open *****************
  1231 ;; Defined at:
  1232 ;;		line 204 in file "mcc_generated_files/i2c2_master.c"
  1233 ;; Parameters:    Size  Location     Type
  1234 ;;  address         1    wreg     unsigned char 
  1235 ;; Auto vars:     Size  Location     Type
  1236 ;;  address         1    0[COMRAM] unsigned char 
  1237 ;;  returnValue     1    1[COMRAM] enum E355
  1238 ;; Return value:  Size  Location     Type
  1239 ;;                  1    wreg      enum E355
  1240 ;; Registers used:
  1241 ;;		wreg, status,2, status,0, cstack
  1242 ;; Tracked objects:
  1243 ;;		On entry : 0/0
  1244 ;;		On exit  : 0/0
  1245 ;;		Unchanged: 0/0
  1246 ;; Data sizes:     COMRAM   BANK0   BANK1   BANK2   BANK3   BANK4   BANK5   BANK6   BANK7
  1247 ;;      Params:         0       0       0       0       0       0       0       0       0
  1248 ;;      Locals:         2       0       0       0       0       0       0       0       0
  1249 ;;      Temps:          0       0       0       0       0       0       0       0       0
  1250 ;;      Totals:         2       0       0       0       0       0       0       0       0
  1251 ;;Total ram usage:        2 bytes
  1252 ;; Hardware stack levels used: 1
  1253 ;; Hardware stack levels required when called: 1
  1254 ;; This function calls:
  1255 ;;		_I2C2_MasterClearIrq
  1256 ;;		_I2C2_MasterOpen
  1257 ;; This function is called by:
  1258 ;;		_I2C2_WriteNBytes
  1259 ;;		_I2C2_ReadNBytes
  1260 ;;		_I2C2_Read1ByteRegister
  1261 ;;		_I2C2_Read2ByteRegister
  1262 ;;		_I2C2_Write1ByteRegister
  1263 ;;		_I2C2_Write2ByteRegister
  1264 ;;		_I2C2_ReadDataBlock
  1265 ;; This function uses a non-reentrant model
  1266 ;;
  1267                           
  1268                           	psect	text10
  1269  000A82                     __ptext10:
  1270                           	callstack 0
  1271  000A82                     _I2C2_Open:
  1272                           	callstack 28
  1273                           
  1274                           ;incstack = 0
  1275                           ;I2C2_Open@address stored from wreg
  1276  000A82  6E2D               	movwf	I2C2_Open@address^0,c
  1277  000A84                     
  1278                           ;mcc_generated_files/i2c2_master.c: 204: i2c2_error_t I2C2_Open(i2c2_address_t address);
      +                          mcc_generated_files/i2c2_master.c: 205: {;mcc_generated_files/i2c2_master.c: 206:     i2
      +                          c2_error_t returnValue = I2C2_BUSY;
  1279  000A84  0E01               	movlw	1
  1280  000A86  6E2E               	movwf	I2C2_Open@returnValue^0,c
  1281  000A88                     
  1282                           ;mcc_generated_files/i2c2_master.c: 208:     if(!I2C2_Status.inUse)
  1283  000A88  B624               	btfsc	(_I2C2_Status+35)^0,3,c
  1284  000A8A  EF49  F005         	goto	u841
  1285  000A8E  EF4B  F005         	goto	u840
  1286  000A92                     u841:
  1287  000A92  EF86  F005         	goto	l2575
  1288  000A96                     u840:
  1289  000A96                     
  1290                           ;mcc_generated_files/i2c2_master.c: 209:     {;mcc_generated_files/i2c2_master.c: 210:  
      +                                 I2C2_Status.address = address;
  1291  000A96  C02D  F01D         	movff	I2C2_Open@address,_I2C2_Status+28
  1292  000A9A                     
  1293                           ;mcc_generated_files/i2c2_master.c: 211:         I2C2_Status.busy = 0;
  1294  000A9A  9424               	bcf	(_I2C2_Status+35)^0,2,c
  1295  000A9C                     
  1296                           ;mcc_generated_files/i2c2_master.c: 212:         I2C2_Status.inUse = 1;
  1297  000A9C  8624               	bsf	(_I2C2_Status+35)^0,3,c
  1298  000A9E                     
  1299                           ;mcc_generated_files/i2c2_master.c: 213:         I2C2_Status.addressNackCheck = 0;
  1300  000A9E  0EFC               	movlw	-4
  1301  000AA0  1624               	andwf	(_I2C2_Status+35)^0,f,c
  1302  000AA2                     
  1303                           ;mcc_generated_files/i2c2_master.c: 214:         I2C2_Status.state = I2C2_RESET;
  1304  000AA2  0E0F               	movlw	15
  1305  000AA4  6E22               	movwf	(_I2C2_Status+33)^0,c
  1306  000AA6                     
  1307                           ;mcc_generated_files/i2c2_master.c: 215:         I2C2_Status.time_out_value = 500;
  1308  000AA6  0E01               	movlw	1
  1309  000AA8  6E1C               	movwf	(_I2C2_Status+27)^0,c
  1310  000AAA  0EF4               	movlw	244
  1311  000AAC  6E1B               	movwf	(_I2C2_Status+26)^0,c
  1312  000AAE                     
  1313                           ;mcc_generated_files/i2c2_master.c: 216:         I2C2_Status.bufferFree = 1;
  1314  000AAE  8824               	bsf	(_I2C2_Status+35)^0,4,c
  1315  000AB0                     
  1316                           ;mcc_generated_files/i2c2_master.c: 219:         I2C2_Status.callbackTable[I2C2_DATA_COM
      +                          PLETE]=I2C2_CallbackReturnStop;
  1317  000AB0  0E16               	movlw	low _I2C2_CallbackReturnStop
  1318  000AB2  6E01               	movwf	_I2C2_Status^0,c
  1319  000AB4  0E14               	movlw	high _I2C2_CallbackReturnStop
  1320  000AB6  6E02               	movwf	(_I2C2_Status+1)^0,c
  1321  000AB8                     
  1322                           ;mcc_generated_files/i2c2_master.c: 220:         I2C2_Status.callbackPayload[I2C2_DATA_C
      +                          OMPLETE] = ((void*)0);
  1323  000AB8  0E00               	movlw	0
  1324  000ABA  6E0D               	movwf	(_I2C2_Status+12)^0,c
  1325  000ABC  0E00               	movlw	0
  1326  000ABE  6E0E               	movwf	(_I2C2_Status+13)^0,c
  1327  000AC0                     
  1328                           ;mcc_generated_files/i2c2_master.c: 221:         I2C2_Status.callbackTable[I2C2_WRITE_CO
      +                          LLISION]=I2C2_CallbackReturnStop;
  1329  000AC0  0E16               	movlw	low _I2C2_CallbackReturnStop
  1330  000AC2  6E03               	movwf	(_I2C2_Status+2)^0,c
  1331  000AC4  0E14               	movlw	high _I2C2_CallbackReturnStop
  1332  000AC6  6E04               	movwf	(_I2C2_Status+3)^0,c
  1333  000AC8                     
  1334                           ;mcc_generated_files/i2c2_master.c: 222:         I2C2_Status.callbackPayload[I2C2_WRITE_
      +                          COLLISION] = ((void*)0);
  1335  000AC8  0E00               	movlw	0
  1336  000ACA  6E0F               	movwf	(_I2C2_Status+14)^0,c
  1337  000ACC  0E00               	movlw	0
  1338  000ACE  6E10               	movwf	(_I2C2_Status+15)^0,c
  1339  000AD0                     
  1340                           ;mcc_generated_files/i2c2_master.c: 223:         I2C2_Status.callbackTable[I2C2_ADDR_NAC
      +                          K]=I2C2_CallbackReturnStop;
  1341  000AD0  0E16               	movlw	low _I2C2_CallbackReturnStop
  1342  000AD2  6E05               	movwf	(_I2C2_Status+4)^0,c
  1343  000AD4  0E14               	movlw	high _I2C2_CallbackReturnStop
  1344  000AD6  6E06               	movwf	(_I2C2_Status+5)^0,c
  1345  000AD8                     
  1346                           ;mcc_generated_files/i2c2_master.c: 224:         I2C2_Status.callbackPayload[I2C2_ADDR_N
      +                          ACK] = ((void*)0);
  1347  000AD8  0E00               	movlw	0
  1348  000ADA  6E11               	movwf	(_I2C2_Status+16)^0,c
  1349  000ADC  0E00               	movlw	0
  1350  000ADE  6E12               	movwf	(_I2C2_Status+17)^0,c
  1351  000AE0                     
  1352                           ;mcc_generated_files/i2c2_master.c: 225:         I2C2_Status.callbackTable[I2C2_DATA_NAC
      +                          K]=I2C2_CallbackReturnStop;
  1353  000AE0  0E16               	movlw	low _I2C2_CallbackReturnStop
  1354  000AE2  6E07               	movwf	(_I2C2_Status+6)^0,c
  1355  000AE4  0E14               	movlw	high _I2C2_CallbackReturnStop
  1356  000AE6  6E08               	movwf	(_I2C2_Status+7)^0,c
  1357  000AE8                     
  1358                           ;mcc_generated_files/i2c2_master.c: 226:         I2C2_Status.callbackPayload[I2C2_DATA_N
      +                          ACK] = ((void*)0);
  1359  000AE8  0E00               	movlw	0
  1360  000AEA  6E13               	movwf	(_I2C2_Status+18)^0,c
  1361  000AEC  0E00               	movlw	0
  1362  000AEE  6E14               	movwf	(_I2C2_Status+19)^0,c
  1363  000AF0                     
  1364                           ;mcc_generated_files/i2c2_master.c: 227:         I2C2_Status.callbackTable[I2C2_TIMEOUT]
      +                          =I2C2_CallbackReturnReset;
  1365  000AF0  0E12               	movlw	low _I2C2_CallbackReturnReset
  1366  000AF2  6E09               	movwf	(_I2C2_Status+8)^0,c
  1367  000AF4  0E14               	movlw	high _I2C2_CallbackReturnReset
  1368  000AF6  6E0A               	movwf	(_I2C2_Status+9)^0,c
  1369  000AF8                     
  1370                           ;mcc_generated_files/i2c2_master.c: 228:         I2C2_Status.callbackPayload[I2C2_TIMEOU
      +                          T] = ((void*)0);
  1371  000AF8  0E00               	movlw	0
  1372  000AFA  6E15               	movwf	(_I2C2_Status+20)^0,c
  1373  000AFC  0E00               	movlw	0
  1374  000AFE  6E16               	movwf	(_I2C2_Status+21)^0,c
  1375  000B00                     
  1376                           ;mcc_generated_files/i2c2_master.c: 230:         I2C2_MasterClearIrq();
  1377  000B00  ECE0  F009         	call	_I2C2_MasterClearIrq	;wreg free
  1378  000B04                     
  1379                           ;mcc_generated_files/i2c2_master.c: 231:         I2C2_MasterOpen();
  1380  000B04  ECDF  F008         	call	_I2C2_MasterOpen	;wreg free
  1381  000B08                     
  1382                           ;mcc_generated_files/i2c2_master.c: 232:         returnValue = I2C2_NOERR;
  1383  000B08  0E00               	movlw	0
  1384  000B0A  6E2E               	movwf	I2C2_Open@returnValue^0,c
  1385  000B0C                     l2575:
  1386                           
  1387                           ;mcc_generated_files/i2c2_master.c: 234:     return returnValue;
  1388  000B0C  502E               	movf	I2C2_Open@returnValue^0,w,c
  1389  000B0E  0012               	return		;funcret
  1390  000B10                     __end_of_I2C2_Open:
  1391                           	callstack 0
  1392                           
  1393 ;; *************** function _I2C2_MasterOpen *****************
  1394 ;; Defined at:
  1395 ;;		line 632 in file "mcc_generated_files/i2c2_master.c"
  1396 ;; Parameters:    Size  Location     Type
  1397 ;;		None
  1398 ;; Auto vars:     Size  Location     Type
  1399 ;;		None
  1400 ;; Return value:  Size  Location     Type
  1401 ;;                  1    wreg      _Bool 
  1402 ;; Registers used:
  1403 ;;		wreg, status,2
  1404 ;; Tracked objects:
  1405 ;;		On entry : 0/0
  1406 ;;		On exit  : 0/0
  1407 ;;		Unchanged: 0/0
  1408 ;; Data sizes:     COMRAM   BANK0   BANK1   BANK2   BANK3   BANK4   BANK5   BANK6   BANK7
  1409 ;;      Params:         0       0       0       0       0       0       0       0       0
  1410 ;;      Locals:         0       0       0       0       0       0       0       0       0
  1411 ;;      Temps:          0       0       0       0       0       0       0       0       0
  1412 ;;      Totals:         0       0       0       0       0       0       0       0       0
  1413 ;;Total ram usage:        0 bytes
  1414 ;; Hardware stack levels used: 1
  1415 ;; This function calls:
  1416 ;;		Nothing
  1417 ;; This function is called by:
  1418 ;;		_I2C2_Open
  1419 ;; This function uses a non-reentrant model
  1420 ;;
  1421                           
  1422                           	psect	text11
  1423  0011BE                     __ptext11:
  1424                           	callstack 0
  1425  0011BE                     _I2C2_MasterOpen:
  1426                           	callstack 28
  1427  0011BE                     
  1428                           ;mcc_generated_files/i2c2_master.c: 634:     if(!I2C2CON0bits.EN)
  1429  0011BE  013D               	movlb	61	; () banked
  1430  0011C0  BF5D               	btfsc	93,7,b	;volatile
  1431  0011C2  EFE5  F008         	goto	u361
  1432  0011C6  EFE7  F008         	goto	u360
  1433  0011CA                     u361:
  1434  0011CA  EFEF  F008         	goto	l537
  1435  0011CE                     u360:
  1436  0011CE                     
  1437                           ; BSR set to: 61
  1438                           ;mcc_generated_files/i2c2_master.c: 635:     {;mcc_generated_files/i2c2_master.c: 637:  
      +                                 I2C2PIR = 0x00;
  1439  0011CE  0E00               	movlw	0
  1440  0011D0  6F63               	movwf	99,b	;volatile
  1441                           
  1442                           ;mcc_generated_files/i2c2_master.c: 639:         I2C2PIE = 0x00;
  1443  0011D2  0E00               	movlw	0
  1444  0011D4  6F64               	movwf	100,b	;volatile
  1445                           
  1446                           ;mcc_generated_files/i2c2_master.c: 641:         I2C2ERR = 0x00;
  1447  0011D6  0E00               	movlw	0
  1448  0011D8  6F60               	movwf	96,b	;volatile
  1449  0011DA                     
  1450                           ; BSR set to: 61
  1451                           ;mcc_generated_files/i2c2_master.c: 643:         I2C2CNT = 0xFF;
  1452  0011DA  6956               	setf	86,b	;volatile
  1453  0011DC                     
  1454                           ; BSR set to: 61
  1455                           ;mcc_generated_files/i2c2_master.c: 645:         I2C2CON0bits.EN = 1;
  1456  0011DC  8F5D               	bsf	93,7,b	;volatile
  1457  0011DE                     l537:
  1458                           
  1459                           ; BSR set to: 61
  1460  0011DE  0012               	return		;funcret
  1461  0011E0                     __end_of_I2C2_MasterOpen:
  1462                           	callstack 0
  1463                           
  1464 ;; *************** function _I2C2_MasterRead *****************
  1465 ;; Defined at:
  1466 ;;		line 276 in file "mcc_generated_files/i2c2_master.c"
  1467 ;; Parameters:    Size  Location     Type
  1468 ;;		None
  1469 ;; Auto vars:     Size  Location     Type
  1470 ;;		None
  1471 ;; Return value:  Size  Location     Type
  1472 ;;                  1    wreg      enum E355
  1473 ;; Registers used:
  1474 ;;		wreg, fsr2l, fsr2h, status,2, status,0, pcl, pclath, pclatu, tosl, tblptrl, tblptrh, tblptru, prodl, prodh, cstack
  1475 ;; Tracked objects:
  1476 ;;		On entry : 0/0
  1477 ;;		On exit  : 0/0
  1478 ;;		Unchanged: 0/0
  1479 ;; Data sizes:     COMRAM   BANK0   BANK1   BANK2   BANK3   BANK4   BANK5   BANK6   BANK7
  1480 ;;      Params:         0       0       0       0       0       0       0       0       0
  1481 ;;      Locals:         0       0       0       0       0       0       0       0       0
  1482 ;;      Temps:          0       0       0       0       0       0       0       0       0
  1483 ;;      Totals:         0       0       0       0       0       0       0       0       0
  1484 ;;Total ram usage:        0 bytes
  1485 ;; Hardware stack levels used: 1
  1486 ;; Hardware stack levels required when called: 10
  1487 ;; This function calls:
  1488 ;;		_I2C2_MasterOperation
  1489 ;; This function is called by:
  1490 ;;		_I2C2_ReadNBytes
  1491 ;; This function uses a non-reentrant model
  1492 ;;
  1493                           
  1494                           	psect	text12
  1495  0013A0                     __ptext12:
  1496                           	callstack 0
  1497  0013A0                     _I2C2_MasterRead:
  1498                           	callstack 19
  1499  0013A0                     
  1500                           ;mcc_generated_files/i2c2_master.c: 278:     return I2C2_MasterOperation(1);;	Return val
      +                          ue of _I2C2_MasterRead is never used
  1501  0013A0  0E01               	movlw	1
  1502  0013A2  EC9B  F007         	call	_I2C2_MasterOperation
  1503  0013A6  0012               	return		;funcret
  1504  0013A8                     __end_of_I2C2_MasterRead:
  1505                           	callstack 0
  1506                           
  1507 ;; *************** function _I2C2_MasterOperation *****************
  1508 ;; Defined at:
  1509 ;;		line 252 in file "mcc_generated_files/i2c2_master.c"
  1510 ;; Parameters:    Size  Location     Type
  1511 ;;  read            1    wreg     _Bool 
  1512 ;; Auto vars:     Size  Location     Type
  1513 ;;  read            1   17[COMRAM] _Bool 
  1514 ;;  returnValue     1   18[COMRAM] enum E355
  1515 ;; Return value:  Size  Location     Type
  1516 ;;                  1    wreg      enum E355
  1517 ;; Registers used:
  1518 ;;		wreg, fsr2l, fsr2h, status,2, status,0, pcl, pclath, pclatu, tosl, tblptrl, tblptrh, tblptru, prodl, prodh, cstack
  1519 ;; Tracked objects:
  1520 ;;		On entry : 0/0
  1521 ;;		On exit  : 0/0
  1522 ;;		Unchanged: 0/0
  1523 ;; Data sizes:     COMRAM   BANK0   BANK1   BANK2   BANK3   BANK4   BANK5   BANK6   BANK7
  1524 ;;      Params:         0       0       0       0       0       0       0       0       0
  1525 ;;      Locals:         2       0       0       0       0       0       0       0       0
  1526 ;;      Temps:          0       0       0       0       0       0       0       0       0
  1527 ;;      Totals:         2       0       0       0       0       0       0       0       0
  1528 ;;Total ram usage:        2 bytes
  1529 ;; Hardware stack levels used: 1
  1530 ;; Hardware stack levels required when called: 9
  1531 ;; This function calls:
  1532 ;;		_I2C2_DO_SEND_ADR_READ
  1533 ;;		_I2C2_DO_SEND_ADR_WRITE
  1534 ;;		_I2C2_MasterSetCounter
  1535 ;;		_I2C2_Poller
  1536 ;; This function is called by:
  1537 ;;		_I2C2_MasterRead
  1538 ;;		_I2C2_MasterWrite
  1539 ;; This function uses a non-reentrant model
  1540 ;;
  1541                           
  1542                           	psect	text13
  1543  000F36                     __ptext13:
  1544                           	callstack 0
  1545  000F36                     _I2C2_MasterOperation:
  1546                           	callstack 19
  1547                           
  1548                           ;incstack = 0
  1549                           ;I2C2_MasterOperation@read stored from wreg
  1550  000F36  6E3E               	movwf	I2C2_MasterOperation@read^0,c
  1551  000F38                     
  1552                           ;mcc_generated_files/i2c2_master.c: 252: i2c2_error_t I2C2_MasterOperation(_Bool read);m
      +                          cc_generated_files/i2c2_master.c: 253: {;mcc_generated_files/i2c2_master.c: 254:     i2c
      +                          2_error_t returnValue = I2C2_BUSY;
  1553  000F38  0E01               	movlw	1
  1554  000F3A  6E3F               	movwf	I2C2_MasterOperation@returnValue^0,c
  1555  000F3C                     
  1556                           ;mcc_generated_files/i2c2_master.c: 255:     if(!I2C2_Status.busy)
  1557  000F3C  B424               	btfsc	(_I2C2_Status+35)^0,2,c
  1558  000F3E  EFA3  F007         	goto	u821
  1559  000F42  EFA5  F007         	goto	u820
  1560  000F46                     u821:
  1561  000F46  EFBF  F007         	goto	l2527
  1562  000F4A                     u820:
  1563  000F4A                     
  1564                           ;mcc_generated_files/i2c2_master.c: 256:     {;mcc_generated_files/i2c2_master.c: 257:  
      +                                 I2C2_Status.busy = 1;
  1565  000F4A  8424               	bsf	(_I2C2_Status+35)^0,2,c
  1566  000F4C                     
  1567                           ;mcc_generated_files/i2c2_master.c: 258:         returnValue = I2C2_NOERR;
  1568  000F4C  0E00               	movlw	0
  1569  000F4E  6E3F               	movwf	I2C2_MasterOperation@returnValue^0,c
  1570  000F50                     
  1571                           ;mcc_generated_files/i2c2_master.c: 259:         I2C2_MasterSetCounter((uint8_t) I2C2_St
      +                          atus.data_length);
  1572  000F50  5020               	movf	(_I2C2_Status+31)^0,w,c
  1573  000F52  ECC2  F009         	call	_I2C2_MasterSetCounter
  1574  000F56                     
  1575                           ;mcc_generated_files/i2c2_master.c: 261:         if(read)
  1576  000F56  503E               	movf	I2C2_MasterOperation@read^0,w,c
  1577  000F58  B4D8               	btfsc	status,2,c
  1578  000F5A  EFB1  F007         	goto	u831
  1579  000F5E  EFB3  F007         	goto	u830
  1580  000F62                     u831:
  1581  000F62  EFB9  F007         	goto	l2521
  1582  000F66                     u830:
  1583  000F66                     
  1584                           ;mcc_generated_files/i2c2_master.c: 262:         {;mcc_generated_files/i2c2_master.c: 26
      +                          3:             I2C2_Status.state = I2C2_RX;
  1585  000F66  0E04               	movlw	4
  1586  000F68  6E22               	movwf	(_I2C2_Status+33)^0,c
  1587  000F6A                     
  1588                           ;mcc_generated_files/i2c2_master.c: 264:             I2C2_DO_SEND_ADR_READ();
  1589  000F6A  EC7E  F008         	call	_I2C2_DO_SEND_ADR_READ	;wreg free
  1590                           
  1591                           ;mcc_generated_files/i2c2_master.c: 265:         }
  1592  000F6E  EFBD  F007         	goto	l2525
  1593  000F72                     l2521:
  1594                           
  1595                           ;mcc_generated_files/i2c2_master.c: 267:         {;mcc_generated_files/i2c2_master.c: 26
      +                          8:             I2C2_Status.state = I2C2_TX;
  1596  000F72  0E03               	movlw	3
  1597  000F74  6E22               	movwf	(_I2C2_Status+33)^0,c
  1598  000F76                     
  1599                           ;mcc_generated_files/i2c2_master.c: 269:             I2C2_DO_SEND_ADR_WRITE();
  1600  000F76  EC84  F009         	call	_I2C2_DO_SEND_ADR_WRITE	;wreg free
  1601  000F7A                     l2525:
  1602                           
  1603                           ;mcc_generated_files/i2c2_master.c: 271:         I2C2_Poller();
  1604  000F7A  EC10  F009         	call	_I2C2_Poller	;wreg free
  1605  000F7E                     l2527:
  1606                           
  1607                           ;mcc_generated_files/i2c2_master.c: 273:     return returnValue;
  1608  000F7E  503F               	movf	I2C2_MasterOperation@returnValue^0,w,c
  1609  000F80  0012               	return		;funcret
  1610  000F82                     __end_of_I2C2_MasterOperation:
  1611                           	callstack 0
  1612                           
  1613 ;; *************** function _I2C2_Poller *****************
  1614 ;; Defined at:
  1615 ;;		line 342 in file "mcc_generated_files/i2c2_master.c"
  1616 ;; Parameters:    Size  Location     Type
  1617 ;;		None
  1618 ;; Auto vars:     Size  Location     Type
  1619 ;;		None
  1620 ;; Return value:  Size  Location     Type
  1621 ;;                  1    wreg      void 
  1622 ;; Registers used:
  1623 ;;		wreg, fsr2l, fsr2h, status,2, status,0, pcl, pclath, pclatu, tosl, tblptrl, tblptrh, tblptru, prodl, prodh, cstack
  1624 ;; Tracked objects:
  1625 ;;		On entry : 0/0
  1626 ;;		On exit  : 0/0
  1627 ;;		Unchanged: 0/0
  1628 ;; Data sizes:     COMRAM   BANK0   BANK1   BANK2   BANK3   BANK4   BANK5   BANK6   BANK7
  1629 ;;      Params:         0       0       0       0       0       0       0       0       0
  1630 ;;      Locals:         0       0       0       0       0       0       0       0       0
  1631 ;;      Temps:          0       0       0       0       0       0       0       0       0
  1632 ;;      Totals:         0       0       0       0       0       0       0       0       0
  1633 ;;Total ram usage:        0 bytes
  1634 ;; Hardware stack levels used: 1
  1635 ;; Hardware stack levels required when called: 8
  1636 ;; This function calls:
  1637 ;;		_I2C2_MasterFsm
  1638 ;;		_I2C2_MasterWaitForEvent
  1639 ;; This function is called by:
  1640 ;;		_I2C2_MasterOperation
  1641 ;; This function uses a non-reentrant model
  1642 ;;
  1643                           
  1644                           	psect	text14
  1645  001220                     __ptext14:
  1646                           	callstack 0
  1647  001220                     _I2C2_Poller:
  1648                           	callstack 19
  1649  001220                     
  1650                           ;mcc_generated_files/i2c2_master.c: 344:     while(I2C2_Status.busy)
  1651  001220  EF16  F009         	goto	l2503
  1652  001224                     l2499:
  1653                           
  1654                           ;mcc_generated_files/i2c2_master.c: 345:     {;mcc_generated_files/i2c2_master.c: 346:  
      +                                 I2C2_MasterWaitForEvent();
  1655  001224  EC17  F007         	call	_I2C2_MasterWaitForEvent	;wreg free
  1656  001228                     
  1657                           ;mcc_generated_files/i2c2_master.c: 347:         I2C2_MasterFsm();
  1658  001228  ECE6  F006         	call	_I2C2_MasterFsm	;wreg free
  1659  00122C                     l2503:
  1660                           
  1661                           ;mcc_generated_files/i2c2_master.c: 344:     while(I2C2_Status.busy)
  1662  00122C  B424               	btfsc	(_I2C2_Status+35)^0,2,c
  1663  00122E  EF1B  F009         	goto	u811
  1664  001232  EF1D  F009         	goto	u810
  1665  001236                     u811:
  1666  001236  EF12  F009         	goto	l2499
  1667  00123A                     u810:
  1668  00123A  0012               	return		;funcret
  1669  00123C                     __end_of_I2C2_Poller:
  1670                           	callstack 0
  1671                           
  1672 ;; *************** function _I2C2_MasterWaitForEvent *****************
  1673 ;; Defined at:
  1674 ;;		line 809 in file "mcc_generated_files/i2c2_master.c"
  1675 ;; Parameters:    Size  Location     Type
  1676 ;;		None
  1677 ;; Auto vars:     Size  Location     Type
  1678 ;;		None
  1679 ;; Return value:  Size  Location     Type
  1680 ;;                  1    wreg      void 
  1681 ;; Registers used:
  1682 ;;		None
  1683 ;; Tracked objects:
  1684 ;;		On entry : 0/0
  1685 ;;		On exit  : 0/0
  1686 ;;		Unchanged: 0/0
  1687 ;; Data sizes:     COMRAM   BANK0   BANK1   BANK2   BANK3   BANK4   BANK5   BANK6   BANK7
  1688 ;;      Params:         0       0       0       0       0       0       0       0       0
  1689 ;;      Locals:         0       0       0       0       0       0       0       0       0
  1690 ;;      Temps:          0       0       0       0       0       0       0       0       0
  1691 ;;      Totals:         0       0       0       0       0       0       0       0       0
  1692 ;;Total ram usage:        0 bytes
  1693 ;; Hardware stack levels used: 1
  1694 ;; This function calls:
  1695 ;;		Nothing
  1696 ;; This function is called by:
  1697 ;;		_I2C2_Poller
  1698 ;; This function uses a non-reentrant model
  1699 ;;
  1700                           
  1701                           	psect	text15
  1702  000E2E                     __ptext15:
  1703                           	callstack 0
  1704  000E2E                     _I2C2_MasterWaitForEvent:
  1705                           	callstack 26
  1706  000E2E                     l617:
  1707                           
  1708                           ;mcc_generated_files/i2c2_master.c: 812:     {;mcc_generated_files/i2c2_master.c: 813:  
      +                                 if(PIR7bits.I2C2TXIF)
  1709  000E2E  0139               	movlb	57	; () banked
  1710  000E30  A3A7               	btfss	167,1,b	;volatile
  1711  000E32  EF1D  F007         	goto	u271
  1712  000E36  EF1F  F007         	goto	u270
  1713  000E3A                     u271:
  1714  000E3A  EF21  F007         	goto	l618
  1715  000E3E                     u270:
  1716  000E3E  EF44  F007         	goto	l625
  1717  000E42                     l618:
  1718                           
  1719                           ; BSR set to: 57
  1720                           ;mcc_generated_files/i2c2_master.c: 817:         if(PIR7bits.I2C2RXIF)
  1721  000E42  A1A7               	btfss	167,0,b	;volatile
  1722  000E44  EF26  F007         	goto	u281
  1723  000E48  EF28  F007         	goto	u280
  1724  000E4C                     u281:
  1725  000E4C  EF2A  F007         	goto	l620
  1726  000E50                     u280:
  1727  000E50  EF44  F007         	goto	l625
  1728  000E54                     l620:
  1729                           
  1730                           ; BSR set to: 57
  1731                           ;mcc_generated_files/i2c2_master.c: 821:         if(I2C2PIRbits.PCIF)
  1732  000E54  013D               	movlb	61	; () banked
  1733  000E56  A563               	btfss	99,2,b	;volatile
  1734  000E58  EF30  F007         	goto	u291
  1735  000E5C  EF32  F007         	goto	u290
  1736  000E60                     u291:
  1737  000E60  EF34  F007         	goto	l621
  1738  000E64                     u290:
  1739  000E64  EF44  F007         	goto	l625
  1740  000E68                     l621:
  1741                           
  1742                           ; BSR set to: 61
  1743                           ;mcc_generated_files/i2c2_master.c: 825:         if(I2C2PIRbits.CNTIF)
  1744  000E68  AF63               	btfss	99,7,b	;volatile
  1745  000E6A  EF39  F007         	goto	u301
  1746  000E6E  EF3B  F007         	goto	u300
  1747  000E72                     u301:
  1748  000E72  EF3D  F007         	goto	l622
  1749  000E76                     u300:
  1750  000E76  EF44  F007         	goto	l625
  1751  000E7A                     l622:
  1752                           
  1753                           ; BSR set to: 61
  1754                           ;mcc_generated_files/i2c2_master.c: 829:         if(I2C2ERRbits.NACKIF)
  1755  000E7A  A960               	btfss	96,4,b	;volatile
  1756  000E7C  EF42  F007         	goto	u311
  1757  000E80  EF44  F007         	goto	u310
  1758  000E84                     u311:
  1759  000E84  EF17  F007         	goto	l617
  1760  000E88                     u310:
  1761  000E88                     l625:
  1762  000E88  0012               	return		;funcret
  1763  000E8A                     __end_of_I2C2_MasterWaitForEvent:
  1764                           	callstack 0
  1765                           
  1766 ;; *************** function _I2C2_MasterFsm *****************
  1767 ;; Defined at:
  1768 ;;		line 351 in file "mcc_generated_files/i2c2_master.c"
  1769 ;; Parameters:    Size  Location     Type
  1770 ;;		None
  1771 ;; Auto vars:     Size  Location     Type
  1772 ;;		None
  1773 ;; Return value:  Size  Location     Type
  1774 ;;                  1    wreg      void 
  1775 ;; Registers used:
  1776 ;;		wreg, fsr2l, fsr2h, status,2, status,0, pcl, pclath, pclatu, tosl, tblptrl, tblptrh, tblptru, prodl, prodh, cstack
  1777 ;; Tracked objects:
  1778 ;;		On entry : 0/0
  1779 ;;		On exit  : 0/0
  1780 ;;		Unchanged: 0/0
  1781 ;; Data sizes:     COMRAM   BANK0   BANK1   BANK2   BANK3   BANK4   BANK5   BANK6   BANK7
  1782 ;;      Params:         0       0       0       0       0       0       0       0       0
  1783 ;;      Locals:         0       0       0       0       0       0       0       0       0
  1784 ;;      Temps:          0       0       0       0       0       0       0       0       0
  1785 ;;      Totals:         0       0       0       0       0       0       0       0       0
  1786 ;;Total ram usage:        0 bytes
  1787 ;; Hardware stack levels used: 1
  1788 ;; Hardware stack levels required when called: 7
  1789 ;; This function calls:
  1790 ;;		_I2C2_ClearInterruptFlags
  1791 ;;		_I2C2_DO_ADDRESS_NACK
  1792 ;;		_I2C2_DO_BUS_COLLISION
  1793 ;;		_I2C2_DO_BUS_ERROR
  1794 ;;		_I2C2_DO_IDLE
  1795 ;;		_I2C2_DO_RESET
  1796 ;;		_I2C2_DO_RX
  1797 ;;		_I2C2_DO_RX_ACK
  1798 ;;		_I2C2_DO_RX_EMPTY
  1799 ;;		_I2C2_DO_RX_NACK_RESTART
  1800 ;;		_I2C2_DO_RX_NACK_STOP
  1801 ;;		_I2C2_DO_SEND_ADR_READ
  1802 ;;		_I2C2_DO_SEND_ADR_WRITE
  1803 ;;		_I2C2_DO_SEND_RESTART
  1804 ;;		_I2C2_DO_SEND_RESTART_READ
  1805 ;;		_I2C2_DO_SEND_RESTART_WRITE
  1806 ;;		_I2C2_DO_SEND_STOP
  1807 ;;		_I2C2_DO_TX
  1808 ;;		_I2C2_DO_TX_ACK
  1809 ;;		_I2C2_DO_TX_EMPTY
  1810 ;;		_I2C2_MasterIsNack
  1811 ;; This function is called by:
  1812 ;;		_I2C2_Poller
  1813 ;; This function uses a non-reentrant model
  1814 ;;
  1815                           
  1816                           	psect	text16
  1817  000DCC                     __ptext16:
  1818                           	callstack 0
  1819  000DCC                     _I2C2_MasterFsm:
  1820                           	callstack 19
  1821  000DCC                     
  1822                           ;mcc_generated_files/i2c2_master.c: 353:     I2C2_ClearInterruptFlags();
  1823  000DCC  EC72  F007         	call	_I2C2_ClearInterruptFlags	;wreg free
  1824  000DD0                     
  1825                           ;mcc_generated_files/i2c2_master.c: 355:     if(I2C2_Status.addressNackCheck && I2C2_Mas
      +                          terIsNack())
  1826  000DD0  5024               	movf	(_I2C2_Status+35)^0,w,c
  1827  000DD2  0B03               	andlw	3
  1828  000DD4  0900               	iorlw	0
  1829  000DD6  B4D8               	btfsc	status,2,c
  1830  000DD8  EFF0  F006         	goto	u781
  1831  000DDC  EFF2  F006         	goto	u780
  1832  000DE0                     u781:
  1833  000DE0  EFFE  F006         	goto	l2495
  1834  000DE4                     u780:
  1835  000DE4  EC4D  F009         	call	_I2C2_MasterIsNack	;wreg free
  1836  000DE8  0900               	iorlw	0
  1837  000DEA  B4D8               	btfsc	status,2,c
  1838  000DEC  EFFA  F006         	goto	u791
  1839  000DF0  EFFC  F006         	goto	u790
  1840  000DF4                     u791:
  1841  000DF4  EFFE  F006         	goto	l2495
  1842  000DF8                     u790:
  1843  000DF8                     
  1844                           ;mcc_generated_files/i2c2_master.c: 356:     {;mcc_generated_files/i2c2_master.c: 357:  
      +                                 I2C2_Status.state = I2C2_ADDRESS_NACK;
  1845  000DF8  0E10               	movlw	16
  1846  000DFA  6E22               	movwf	(_I2C2_Status+33)^0,c
  1847  000DFC                     l2495:
  1848                           
  1849                           ;mcc_generated_files/i2c2_master.c: 359:     I2C2_Status.state = i2c2_fsmStateTable[I2C2
      +                          _Status.state]();
  1850  000DFC  5022               	movf	(_I2C2_Status+33)^0,w,c
  1851  000DFE  0D02               	mullw	2
  1852  000E00  0E01               	movlw	low _i2c2_fsmStateTable
  1853  000E02  24F3               	addwf	243,w,c
  1854  000E04  6EF6               	movwf	tblptrl,c
  1855  000E06  0E08               	movlw	high _i2c2_fsmStateTable
  1856  000E08  20F4               	addwfc	244,w,c
  1857  000E0A  6EF7               	movwf	tblptrh,c
  1858  000E0C                     	if	0	;There are less than 3 active tblptr bytes
  1859  000E0C                     	endif
  1860  000E0C  D802               	call	u808
  1861  000E0E  EF15  F007         	goto	u809
  1862  000E12                     u808:
  1863  000E12  0005               	push	
  1864  000E14  6EFA               	movwf	pclath,c
  1865  000E16  0009               	tblrd		*+
  1866  000E18  50F5               	movf	tablat,w,c
  1867  000E1A  6EFD               	movwf	tosl,c
  1868  000E1C  0009               	tblrd		*+
  1869  000E1E  50F5               	movf	tablat,w,c
  1870  000E20  6EFE               	movwf	tosh,c
  1871  000E22  50F8               	movf	tblptru,w,c
  1872  000E24  6EFF               	movwf	tosu,c
  1873  000E26  50FA               	movf	pclath,w,c
  1874  000E28  0012               	return		;indir
  1875  000E2A                     u809:
  1876  000E2A  6E22               	movwf	(_I2C2_Status+33)^0,c
  1877  000E2C  0012               	return		;funcret
  1878  000E2E                     __end_of_I2C2_MasterFsm:
  1879                           	callstack 0
  1880                           
  1881 ;; *************** function _I2C2_DO_BUS_ERROR *****************
  1882 ;; Defined at:
  1883 ;;		line 595 in file "mcc_generated_files/i2c2_master.c"
  1884 ;; Parameters:    Size  Location     Type
  1885 ;;		None
  1886 ;; Auto vars:     Size  Location     Type
  1887 ;;		None
  1888 ;; Return value:  Size  Location     Type
  1889 ;;                  1    wreg      enum E22984
  1890 ;; Registers used:
  1891 ;;		wreg, status,2, cstack
  1892 ;; Tracked objects:
  1893 ;;		On entry : 0/0
  1894 ;;		On exit  : 0/0
  1895 ;;		Unchanged: 0/0
  1896 ;; Data sizes:     COMRAM   BANK0   BANK1   BANK2   BANK3   BANK4   BANK5   BANK6   BANK7
  1897 ;;      Params:         0       0       0       0       0       0       0       0       0
  1898 ;;      Locals:         0       0       0       0       0       0       0       0       0
  1899 ;;      Temps:          0       0       0       0       0       0       0       0       0
  1900 ;;      Totals:         0       0       0       0       0       0       0       0       0
  1901 ;;Total ram usage:        0 bytes
  1902 ;; Hardware stack levels used: 1
  1903 ;; Hardware stack levels required when called: 1
  1904 ;; This function calls:
  1905 ;;		_I2C2_MasterResetBus
  1906 ;; This function is called by:
  1907 ;;		_I2C2_MasterFsm
  1908 ;; This function uses a non-reentrant model
  1909 ;;
  1910                           
  1911                           	psect	text17
  1912  00132E                     __ptext17:
  1913                           	callstack 0
  1914  00132E                     _I2C2_DO_BUS_ERROR:
  1915                           	callstack 24
  1916  00132E                     
  1917                           ;mcc_generated_files/i2c2_master.c: 597:     I2C2_MasterResetBus();
  1918  00132E  ECC7  F009         	call	_I2C2_MasterResetBus	;wreg free
  1919  001332                     
  1920                           ;mcc_generated_files/i2c2_master.c: 598:     I2C2_Status.busy = 0;
  1921  001332  9424               	bcf	(_I2C2_Status+35)^0,2,c
  1922  001334                     
  1923                           ;mcc_generated_files/i2c2_master.c: 599:     I2C2_Status.error = I2C2_FAIL;
  1924  001334  0E02               	movlw	2
  1925  001336  6E23               	movwf	(_I2C2_Status+34)^0,c
  1926  001338                     
  1927                           ;mcc_generated_files/i2c2_master.c: 600:     return I2C2_RESET;
  1928  001338  0E0F               	movlw	15
  1929  00133A  0012               	return		;funcret
  1930  00133C                     __end_of_I2C2_DO_BUS_ERROR:
  1931                           	callstack 0
  1932                           
  1933 ;; *************** function _I2C2_DO_BUS_COLLISION *****************
  1934 ;; Defined at:
  1935 ;;		line 579 in file "mcc_generated_files/i2c2_master.c"
  1936 ;; Parameters:    Size  Location     Type
  1937 ;;		None
  1938 ;; Auto vars:     Size  Location     Type
  1939 ;;		None
  1940 ;; Return value:  Size  Location     Type
  1941 ;;                  1    wreg      enum E22984
  1942 ;; Registers used:
  1943 ;;		wreg, fsr2l, fsr2h, status,2, status,0, pcl, pclath, pclatu, tosl, prodl, prodh, cstack
  1944 ;; Tracked objects:
  1945 ;;		On entry : 0/0
  1946 ;;		On exit  : 0/0
  1947 ;;		Unchanged: 0/0
  1948 ;; Data sizes:     COMRAM   BANK0   BANK1   BANK2   BANK3   BANK4   BANK5   BANK6   BANK7
  1949 ;;      Params:         0       0       0       0       0       0       0       0       0
  1950 ;;      Locals:         0       0       0       0       0       0       0       0       0
  1951 ;;      Temps:          2       0       0       0       0       0       0       0       0
  1952 ;;      Totals:         2       0       0       0       0       0       0       0       0
  1953 ;;Total ram usage:        2 bytes
  1954 ;; Hardware stack levels used: 1
  1955 ;; Hardware stack levels required when called: 6
  1956 ;; This function calls:
  1957 ;;		Absolute function
  1958 ;;		_I2C2_CallbackReturnReset
  1959 ;;		_I2C2_CallbackReturnStop
  1960 ;;		_I2C2_DO_RESET
  1961 ;;		_I2C2_DO_SEND_RESTART_READ
  1962 ;;		_I2C2_DO_SEND_RESTART_WRITE
  1963 ;;		_I2C2_MasterClearIrq
  1964 ;;		_rd1RegCompleteHandler
  1965 ;;		_rd2RegCompleteHandler
  1966 ;;		_rdBlkRegCompleteHandler
  1967 ;;		_wr1RegCompleteHandler
  1968 ;;		_wr2RegCompleteHandler
  1969 ;; This function is called by:
  1970 ;;		_I2C2_MasterFsm
  1971 ;; This function uses a non-reentrant model
  1972 ;;
  1973                           
  1974                           	psect	text18
  1975  000C8A                     __ptext18:
  1976                           	callstack 0
  1977  000C8A                     _I2C2_DO_BUS_COLLISION:
  1978                           	callstack 19
  1979  000C8A                     
  1980                           ;mcc_generated_files/i2c2_master.c: 582:     I2C2_MasterClearIrq();
  1981  000C8A  ECE0  F009         	call	_I2C2_MasterClearIrq	;wreg free
  1982  000C8E                     
  1983                           ;mcc_generated_files/i2c2_master.c: 584:     I2C2_Status.error = I2C2_FAIL;
  1984  000C8E  0E02               	movlw	2
  1985  000C90  6E23               	movwf	(_I2C2_Status+34)^0,c
  1986                           
  1987                           ;mcc_generated_files/i2c2_master.c: 585:     switch (I2C2_Status.callbackTable[I2C2_WRIT
      +                          E_COLLISION](I2C2_Status.callbackPayload[I2C2_WRITE_COLLISION])) {
  1988  000C92  EF57  F006         	goto	l2481
  1989  000C96                     l2467:
  1990                           
  1991                           ;mcc_generated_files/i2c2_master.c: 587:         return I2C2_DO_SEND_RESTART_READ();
  1992  000C96  ECAC  F009         	call	_I2C2_DO_SEND_RESTART_READ	;wreg free
  1993  000C9A  EF7E  F006         	goto	l512
  1994  000C9E                     l2471:
  1995                           
  1996                           ;mcc_generated_files/i2c2_master.c: 589:         return I2C2_DO_SEND_RESTART_WRITE();
  1997  000C9E  EC07  F00A         	call	_I2C2_DO_SEND_RESTART_WRITE	;wreg free
  1998  000CA2  EF7E  F006         	goto	l512
  1999  000CA6                     l2475:
  2000                           
  2001                           ;mcc_generated_files/i2c2_master.c: 591:         return I2C2_DO_RESET();
  2002  000CA6  EC9E  F009         	call	_I2C2_DO_RESET	;wreg free
  2003  000CAA  EF7E  F006         	goto	l512
  2004  000CAE                     l2481:
  2005  000CAE  C00F  F036         	movff	_I2C2_Status+14,I2C2_CallbackReturnReset@funPtr
  2006  000CB2  C010  F037         	movff	_I2C2_Status+15,I2C2_CallbackReturnReset@funPtr+1
  2007  000CB6  EE20  F003         	lfsr	2,_I2C2_Status+2
  2008  000CBA  D802               	call	u778
  2009  000CBC  EF6A  F006         	goto	u779
  2010  000CC0                     u778:
  2011  000CC0  0005               	push	
  2012  000CC2  6EFA               	movwf	pclath,c
  2013  000CC4  50DE               	movf	postinc2,w,c
  2014  000CC6  6EFD               	movwf	tosl,c
  2015  000CC8  50DE               	movf	postinc2,w,c
  2016  000CCA  6EFE               	movwf	tosh,c
  2017  000CCC  50F8               	movf	tblptru,w,c
  2018  000CCE  6EFF               	movwf	tosu,c
  2019  000CD0  50FA               	movf	pclath,w,c
  2020  000CD2  0012               	return		;indir
  2021  000CD4                     u779:
  2022  000CD4  6E38               	movwf	??_I2C2_DO_BUS_COLLISION^0,c
  2023  000CD6  6A39               	clrf	(??_I2C2_DO_BUS_COLLISION+1)^0,c
  2024                           
  2025                           ; Switch on 2 bytes has been partitioned into a top level switch of size 1, and 1 sub-sw
      +                          itches
  2026                           ; Switch size 1, requested type "simple"
  2027                           ; Number of cases is 1, Range of values is 0 to 0
  2028                           ; switch strategies available:
  2029                           ; Name         Instructions Cycles
  2030                           ; simple_byte            4     3 (average)
  2031                           ;	Chosen strategy is simple_byte
  2032  000CD8  5039               	movf	(??_I2C2_DO_BUS_COLLISION+1)^0,w,c
  2033  000CDA  0A00               	xorlw	0	; case 0
  2034  000CDC  B4D8               	btfsc	status,2,c
  2035  000CDE  EF73  F006         	goto	l2803
  2036  000CE2  EF53  F006         	goto	l2475
  2037  000CE6                     l2803:
  2038                           
  2039                           ; Switch size 1, requested type "simple"
  2040                           ; Number of cases is 2, Range of values is 2 to 3
  2041                           ; switch strategies available:
  2042                           ; Name         Instructions Cycles
  2043                           ; simple_byte            7     4 (average)
  2044                           ;	Chosen strategy is simple_byte
  2045  000CE6  5038               	movf	??_I2C2_DO_BUS_COLLISION^0,w,c
  2046  000CE8  0A02               	xorlw	2	; case 2
  2047  000CEA  B4D8               	btfsc	status,2,c
  2048  000CEC  EF4B  F006         	goto	l2467
  2049  000CF0  0A01               	xorlw	1	; case 3
  2050  000CF2  B4D8               	btfsc	status,2,c
  2051  000CF4  EF4F  F006         	goto	l2471
  2052  000CF8  EF53  F006         	goto	l2475
  2053  000CFC                     l512:
  2054  000CFC  0012               	return		;funcret
  2055  000CFE                     __end_of_I2C2_DO_BUS_COLLISION:
  2056                           	callstack 0
  2057                           
  2058 ;; *************** function _I2C2_DO_ADDRESS_NACK *****************
  2059 ;; Defined at:
  2060 ;;		line 564 in file "mcc_generated_files/i2c2_master.c"
  2061 ;; Parameters:    Size  Location     Type
  2062 ;;		None
  2063 ;; Auto vars:     Size  Location     Type
  2064 ;;		None
  2065 ;; Return value:  Size  Location     Type
  2066 ;;                  1    wreg      enum E22984
  2067 ;; Registers used:
  2068 ;;		wreg, fsr2l, fsr2h, status,2, status,0, pcl, pclath, pclatu, tosl, prodl, prodh, cstack
  2069 ;; Tracked objects:
  2070 ;;		On entry : 0/0
  2071 ;;		On exit  : 0/0
  2072 ;;		Unchanged: 0/0
  2073 ;; Data sizes:     COMRAM   BANK0   BANK1   BANK2   BANK3   BANK4   BANK5   BANK6   BANK7
  2074 ;;      Params:         0       0       0       0       0       0       0       0       0
  2075 ;;      Locals:         0       0       0       0       0       0       0       0       0
  2076 ;;      Temps:          2       0       0       0       0       0       0       0       0
  2077 ;;      Totals:         2       0       0       0       0       0       0       0       0
  2078 ;;Total ram usage:        2 bytes
  2079 ;; Hardware stack levels used: 1
  2080 ;; Hardware stack levels required when called: 3
  2081 ;; This function calls:
  2082 ;;		Absolute function
  2083 ;;		_I2C2_CallbackReturnReset
  2084 ;;		_I2C2_CallbackReturnStop
  2085 ;;		_I2C2_DO_SEND_RESTART
  2086 ;;		_rd1RegCompleteHandler
  2087 ;;		_rd2RegCompleteHandler
  2088 ;;		_rdBlkRegCompleteHandler
  2089 ;;		_wr1RegCompleteHandler
  2090 ;;		_wr2RegCompleteHandler
  2091 ;; This function is called by:
  2092 ;;		_I2C2_MasterFsm
  2093 ;; This function uses a non-reentrant model
  2094 ;;
  2095                           
  2096                           	psect	text19
  2097  000CFE                     __ptext19:
  2098                           	callstack 0
  2099  000CFE                     _I2C2_DO_ADDRESS_NACK:
  2100                           	callstack 22
  2101  000CFE                     
  2102                           ;mcc_generated_files/i2c2_master.c: 566:     I2C2_Status.addressNackCheck = 0;
  2103  000CFE  0EFC               	movlw	-4
  2104  000D00  1624               	andwf	(_I2C2_Status+35)^0,f,c
  2105                           
  2106                           ;mcc_generated_files/i2c2_master.c: 567:     I2C2_Status.error = I2C2_FAIL;
  2107  000D02  0E02               	movlw	2
  2108  000D04  6E23               	movwf	(_I2C2_Status+34)^0,c
  2109  000D06                     
  2110                           ;mcc_generated_files/i2c2_master.c: 568:     I2C2_Status.busy = 0;
  2111  000D06  9424               	bcf	(_I2C2_Status+35)^0,2,c
  2112                           
  2113                           ;mcc_generated_files/i2c2_master.c: 569:     switch(I2C2_Status.callbackTable[I2C2_ADDR_
      +                          NACK](I2C2_Status.callbackPayload[I2C2_ADDR_NACK]))
  2114  000D08  EF8D  F006         	goto	l2457
  2115  000D0C                     l2447:
  2116                           
  2117                           ;mcc_generated_files/i2c2_master.c: 573:             return I2C2_DO_SEND_RESTART();
  2118  000D0C  EC05  F00A         	call	_I2C2_DO_SEND_RESTART	;wreg free
  2119  000D10  EFB4  F006         	goto	l505
  2120  000D14                     l2451:
  2121                           
  2122                           ;mcc_generated_files/i2c2_master.c: 575:             return I2C2_RESET;
  2123  000D14  0E0F               	movlw	15
  2124  000D16  EFB4  F006         	goto	l505
  2125  000D1A                     l2457:
  2126  000D1A  C011  F036         	movff	_I2C2_Status+16,I2C2_CallbackReturnReset@funPtr
  2127  000D1E  C012  F037         	movff	_I2C2_Status+17,I2C2_CallbackReturnReset@funPtr+1
  2128  000D22  EE20  F005         	lfsr	2,_I2C2_Status+4
  2129  000D26  D802               	call	u768
  2130  000D28  EFA0  F006         	goto	u769
  2131  000D2C                     u768:
  2132  000D2C  0005               	push	
  2133  000D2E  6EFA               	movwf	pclath,c
  2134  000D30  50DE               	movf	postinc2,w,c
  2135  000D32  6EFD               	movwf	tosl,c
  2136  000D34  50DE               	movf	postinc2,w,c
  2137  000D36  6EFE               	movwf	tosh,c
  2138  000D38  50F8               	movf	tblptru,w,c
  2139  000D3A  6EFF               	movwf	tosu,c
  2140  000D3C  50FA               	movf	pclath,w,c
  2141  000D3E  0012               	return		;indir
  2142  000D40                     u769:
  2143  000D40  6E38               	movwf	??_I2C2_DO_ADDRESS_NACK^0,c
  2144  000D42  6A39               	clrf	(??_I2C2_DO_ADDRESS_NACK+1)^0,c
  2145                           
  2146                           ; Switch on 2 bytes has been partitioned into a top level switch of size 1, and 1 sub-sw
      +                          itches
  2147                           ; Switch size 1, requested type "simple"
  2148                           ; Number of cases is 1, Range of values is 0 to 0
  2149                           ; switch strategies available:
  2150                           ; Name         Instructions Cycles
  2151                           ; simple_byte            4     3 (average)
  2152                           ;	Chosen strategy is simple_byte
  2153  000D44  5039               	movf	(??_I2C2_DO_ADDRESS_NACK+1)^0,w,c
  2154  000D46  0A00               	xorlw	0	; case 0
  2155  000D48  B4D8               	btfsc	status,2,c
  2156  000D4A  EFA9  F006         	goto	l2805
  2157  000D4E  EF8A  F006         	goto	l2451
  2158  000D52                     l2805:
  2159                           
  2160                           ; Switch size 1, requested type "simple"
  2161                           ; Number of cases is 2, Range of values is 2 to 3
  2162                           ; switch strategies available:
  2163                           ; Name         Instructions Cycles
  2164                           ; simple_byte            7     4 (average)
  2165                           ;	Chosen strategy is simple_byte
  2166  000D52  5038               	movf	??_I2C2_DO_ADDRESS_NACK^0,w,c
  2167  000D54  0A02               	xorlw	2	; case 2
  2168  000D56  B4D8               	btfsc	status,2,c
  2169  000D58  EF86  F006         	goto	l2447
  2170  000D5C  0A01               	xorlw	1	; case 3
  2171  000D5E  B4D8               	btfsc	status,2,c
  2172  000D60  EF86  F006         	goto	l2447
  2173  000D64  EF8A  F006         	goto	l2451
  2174  000D68                     l505:
  2175  000D68  0012               	return		;funcret
  2176  000D6A                     __end_of_I2C2_DO_ADDRESS_NACK:
  2177                           	callstack 0
  2178                           
  2179 ;; *************** function _I2C2_DO_RESET *****************
  2180 ;; Defined at:
  2181 ;;		line 557 in file "mcc_generated_files/i2c2_master.c"
  2182 ;; Parameters:    Size  Location     Type
  2183 ;;		None
  2184 ;; Auto vars:     Size  Location     Type
  2185 ;;		None
  2186 ;; Return value:  Size  Location     Type
  2187 ;;                  1    wreg      enum E22984
  2188 ;; Registers used:
  2189 ;;		wreg, status,2, cstack
  2190 ;; Tracked objects:
  2191 ;;		On entry : 0/0
  2192 ;;		On exit  : 0/0
  2193 ;;		Unchanged: 0/0
  2194 ;; Data sizes:     COMRAM   BANK0   BANK1   BANK2   BANK3   BANK4   BANK5   BANK6   BANK7
  2195 ;;      Params:         0       0       0       0       0       0       0       0       0
  2196 ;;      Locals:         0       0       0       0       0       0       0       0       0
  2197 ;;      Temps:          0       0       0       0       0       0       0       0       0
  2198 ;;      Totals:         0       0       0       0       0       0       0       0       0
  2199 ;;Total ram usage:        0 bytes
  2200 ;; Hardware stack levels used: 1
  2201 ;; Hardware stack levels required when called: 1
  2202 ;; This function calls:
  2203 ;;		_I2C2_MasterResetBus
  2204 ;; This function is called by:
  2205 ;;		_I2C2_DO_BUS_COLLISION
  2206 ;;		_I2C2_MasterFsm
  2207 ;; This function uses a non-reentrant model
  2208 ;;
  2209                           
  2210                           	psect	text20
  2211  00133C                     __ptext20:
  2212                           	callstack 0
  2213  00133C                     _I2C2_DO_RESET:
  2214                           	callstack 24
  2215  00133C                     
  2216                           ;mcc_generated_files/i2c2_master.c: 559:     I2C2_MasterResetBus();
  2217  00133C  ECC7  F009         	call	_I2C2_MasterResetBus	;wreg free
  2218  001340                     
  2219                           ;mcc_generated_files/i2c2_master.c: 560:     I2C2_Status.busy = 0;
  2220  001340  9424               	bcf	(_I2C2_Status+35)^0,2,c
  2221  001342                     
  2222                           ;mcc_generated_files/i2c2_master.c: 561:     I2C2_Status.error = I2C2_NOERR;
  2223  001342  0E00               	movlw	0
  2224  001344  6E23               	movwf	(_I2C2_Status+34)^0,c
  2225  001346                     
  2226                           ;mcc_generated_files/i2c2_master.c: 562:     return I2C2_RESET;
  2227  001346  0E0F               	movlw	15
  2228  001348  0012               	return		;funcret
  2229  00134A                     __end_of_I2C2_DO_RESET:
  2230                           	callstack 0
  2231                           
  2232 ;; *************** function _I2C2_DO_RX_NACK_RESTART *****************
  2233 ;; Defined at:
  2234 ;;		line 551 in file "mcc_generated_files/i2c2_master.c"
  2235 ;; Parameters:    Size  Location     Type
  2236 ;;		None
  2237 ;; Auto vars:     Size  Location     Type
  2238 ;;		None
  2239 ;; Return value:  Size  Location     Type
  2240 ;;                  1    wreg      enum E22984
  2241 ;; Registers used:
  2242 ;;		wreg, cstack
  2243 ;; Tracked objects:
  2244 ;;		On entry : 0/0
  2245 ;;		On exit  : 0/0
  2246 ;;		Unchanged: 0/0
  2247 ;; Data sizes:     COMRAM   BANK0   BANK1   BANK2   BANK3   BANK4   BANK5   BANK6   BANK7
  2248 ;;      Params:         0       0       0       0       0       0       0       0       0
  2249 ;;      Locals:         0       0       0       0       0       0       0       0       0
  2250 ;;      Temps:          0       0       0       0       0       0       0       0       0
  2251 ;;      Totals:         0       0       0       0       0       0       0       0       0
  2252 ;;Total ram usage:        0 bytes
  2253 ;; Hardware stack levels used: 1
  2254 ;; Hardware stack levels required when called: 1
  2255 ;; This function calls:
  2256 ;;		_I2C2_MasterSendNack
  2257 ;; This function is called by:
  2258 ;;		_I2C2_MasterFsm
  2259 ;; This function uses a non-reentrant model
  2260 ;;
  2261                           
  2262                           	psect	text21
  2263  0013A8                     __ptext21:
  2264                           	callstack 0
  2265  0013A8                     _I2C2_DO_RX_NACK_RESTART:
  2266                           	callstack 24
  2267  0013A8                     
  2268                           ;mcc_generated_files/i2c2_master.c: 553:     I2C2_MasterSendNack();
  2269  0013A8  ECED  F009         	call	_I2C2_MasterSendNack	;wreg free
  2270  0013AC                     
  2271                           ;mcc_generated_files/i2c2_master.c: 554:     return I2C2_SEND_RESTART;
  2272  0013AC  0E09               	movlw	9
  2273  0013AE  0012               	return		;funcret
  2274  0013B0                     __end_of_I2C2_DO_RX_NACK_RESTART:
  2275                           	callstack 0
  2276                           
  2277 ;; *************** function _I2C2_DO_RX_NACK_STOP *****************
  2278 ;; Defined at:
  2279 ;;		line 544 in file "mcc_generated_files/i2c2_master.c"
  2280 ;; Parameters:    Size  Location     Type
  2281 ;;		None
  2282 ;; Auto vars:     Size  Location     Type
  2283 ;;		None
  2284 ;; Return value:  Size  Location     Type
  2285 ;;                  1    wreg      enum E22984
  2286 ;; Registers used:
  2287 ;;		wreg, status,2, cstack
  2288 ;; Tracked objects:
  2289 ;;		On entry : 0/0
  2290 ;;		On exit  : 0/0
  2291 ;;		Unchanged: 0/0
  2292 ;; Data sizes:     COMRAM   BANK0   BANK1   BANK2   BANK3   BANK4   BANK5   BANK6   BANK7
  2293 ;;      Params:         0       0       0       0       0       0       0       0       0
  2294 ;;      Locals:         0       0       0       0       0       0       0       0       0
  2295 ;;      Temps:          0       0       0       0       0       0       0       0       0
  2296 ;;      Totals:         0       0       0       0       0       0       0       0       0
  2297 ;;Total ram usage:        0 bytes
  2298 ;; Hardware stack levels used: 1
  2299 ;; Hardware stack levels required when called: 1
  2300 ;; This function calls:
  2301 ;;		_I2C2_DO_IDLE
  2302 ;;		_I2C2_MasterSendNack
  2303 ;;		_I2C2_MasterStop
  2304 ;; This function is called by:
  2305 ;;		_I2C2_MasterFsm
  2306 ;; This function uses a non-reentrant model
  2307 ;;
  2308                           
  2309                           	psect	text22
  2310  00134A                     __ptext22:
  2311                           	callstack 0
  2312  00134A                     _I2C2_DO_RX_NACK_STOP:
  2313                           	callstack 24
  2314  00134A                     
  2315                           ;mcc_generated_files/i2c2_master.c: 546:     I2C2_MasterSendNack();
  2316  00134A  ECED  F009         	call	_I2C2_MasterSendNack	;wreg free
  2317                           
  2318                           ;mcc_generated_files/i2c2_master.c: 547:     I2C2_MasterStop();
  2319  00134E  ECEA  F009         	call	_I2C2_MasterStop	;wreg free
  2320  001352                     
  2321                           ;mcc_generated_files/i2c2_master.c: 548:     return I2C2_DO_IDLE();
  2322  001352  ECB8  F009         	call	_I2C2_DO_IDLE	;wreg free
  2323  001356  0012               	return		;funcret
  2324  001358                     __end_of_I2C2_DO_RX_NACK_STOP:
  2325                           	callstack 0
  2326                           
  2327 ;; *************** function _I2C2_DO_RX_ACK *****************
  2328 ;; Defined at:
  2329 ;;		line 532 in file "mcc_generated_files/i2c2_master.c"
  2330 ;; Parameters:    Size  Location     Type
  2331 ;;		None
  2332 ;; Auto vars:     Size  Location     Type
  2333 ;;		None
  2334 ;; Return value:  Size  Location     Type
  2335 ;;                  1    wreg      enum E22984
  2336 ;; Registers used:
  2337 ;;		wreg, cstack
  2338 ;; Tracked objects:
  2339 ;;		On entry : 0/0
  2340 ;;		On exit  : 0/0
  2341 ;;		Unchanged: 0/0
  2342 ;; Data sizes:     COMRAM   BANK0   BANK1   BANK2   BANK3   BANK4   BANK5   BANK6   BANK7
  2343 ;;      Params:         0       0       0       0       0       0       0       0       0
  2344 ;;      Locals:         0       0       0       0       0       0       0       0       0
  2345 ;;      Temps:          0       0       0       0       0       0       0       0       0
  2346 ;;      Totals:         0       0       0       0       0       0       0       0       0
  2347 ;;Total ram usage:        0 bytes
  2348 ;; Hardware stack levels used: 1
  2349 ;; Hardware stack levels required when called: 1
  2350 ;; This function calls:
  2351 ;;		_I2C2_MasterSendAck
  2352 ;; This function is called by:
  2353 ;;		_I2C2_MasterFsm
  2354 ;; This function uses a non-reentrant model
  2355 ;;
  2356                           
  2357                           	psect	text23
  2358  0013B0                     __ptext23:
  2359                           	callstack 0
  2360  0013B0                     _I2C2_DO_RX_ACK:
  2361                           	callstack 24
  2362  0013B0                     
  2363                           ;mcc_generated_files/i2c2_master.c: 534:     I2C2_MasterSendAck();
  2364  0013B0  ECF0  F009         	call	_I2C2_MasterSendAck	;wreg free
  2365  0013B4                     
  2366                           ;mcc_generated_files/i2c2_master.c: 535:     return I2C2_RX;
  2367  0013B4  0E04               	movlw	4
  2368  0013B6  0012               	return		;funcret
  2369  0013B8                     __end_of_I2C2_DO_RX_ACK:
  2370                           	callstack 0
  2371                           
  2372 ;; *************** function _I2C2_DO_SEND_STOP *****************
  2373 ;; Defined at:
  2374 ;;		line 521 in file "mcc_generated_files/i2c2_master.c"
  2375 ;; Parameters:    Size  Location     Type
  2376 ;;		None
  2377 ;; Auto vars:     Size  Location     Type
  2378 ;;		None
  2379 ;; Return value:  Size  Location     Type
  2380 ;;                  1    wreg      enum E22984
  2381 ;; Registers used:
  2382 ;;		wreg, status,2, cstack
  2383 ;; Tracked objects:
  2384 ;;		On entry : 0/0
  2385 ;;		On exit  : 0/0
  2386 ;;		Unchanged: 0/0
  2387 ;; Data sizes:     COMRAM   BANK0   BANK1   BANK2   BANK3   BANK4   BANK5   BANK6   BANK7
  2388 ;;      Params:         0       0       0       0       0       0       0       0       0
  2389 ;;      Locals:         0       0       0       0       0       0       0       0       0
  2390 ;;      Temps:          0       0       0       0       0       0       0       0       0
  2391 ;;      Totals:         0       0       0       0       0       0       0       0       0
  2392 ;;Total ram usage:        0 bytes
  2393 ;; Hardware stack levels used: 1
  2394 ;; Hardware stack levels required when called: 1
  2395 ;; This function calls:
  2396 ;;		_I2C2_MasterGetCounter
  2397 ;;		_I2C2_MasterSendTxData
  2398 ;;		_I2C2_MasterSetCounter
  2399 ;;		_I2C2_MasterStop
  2400 ;; This function is called by:
  2401 ;;		_I2C2_MasterFsm
  2402 ;; This function uses a non-reentrant model
  2403 ;;
  2404                           
  2405                           	psect	text24
  2406  001150                     __ptext24:
  2407                           	callstack 0
  2408  001150                     _I2C2_DO_SEND_STOP:
  2409                           	callstack 24
  2410  001150                     
  2411                           ;mcc_generated_files/i2c2_master.c: 523:     I2C2_MasterStop();
  2412  001150  ECEA  F009         	call	_I2C2_MasterStop	;wreg free
  2413  001154                     
  2414                           ;mcc_generated_files/i2c2_master.c: 524:     if(I2C2_MasterGetCounter())
  2415  001154  ECE7  F009         	call	_I2C2_MasterGetCounter	;wreg free
  2416  001158  0900               	iorlw	0
  2417  00115A  B4D8               	btfsc	status,2,c
  2418  00115C  EFB2  F008         	goto	u751
  2419  001160  EFB4  F008         	goto	u750
  2420  001164                     u751:
  2421  001164  EFBA  F008         	goto	l2439
  2422  001168                     u750:
  2423  001168                     
  2424                           ;mcc_generated_files/i2c2_master.c: 525:     {;mcc_generated_files/i2c2_master.c: 526:  
      +                                 I2C2_MasterSetCounter(0);
  2425  001168  0E00               	movlw	0
  2426  00116A  ECC2  F009         	call	_I2C2_MasterSetCounter
  2427                           
  2428                           ;mcc_generated_files/i2c2_master.c: 527:         I2C2_MasterSendTxData(0);
  2429  00116E  0E00               	movlw	0
  2430  001170  ECBD  F009         	call	_I2C2_MasterSendTxData
  2431  001174                     l2439:
  2432                           
  2433                           ;mcc_generated_files/i2c2_master.c: 529:     return I2C2_IDLE;
  2434  001174  0E00               	movlw	0
  2435  001176  0012               	return		;funcret
  2436  001178                     __end_of_I2C2_DO_SEND_STOP:
  2437                           	callstack 0
  2438                           
  2439 ;; *************** function _I2C2_DO_SEND_RESTART *****************
  2440 ;; Defined at:
  2441 ;;		line 516 in file "mcc_generated_files/i2c2_master.c"
  2442 ;; Parameters:    Size  Location     Type
  2443 ;;		None
  2444 ;; Auto vars:     Size  Location     Type
  2445 ;;		None
  2446 ;; Return value:  Size  Location     Type
  2447 ;;                  1    wreg      enum E22984
  2448 ;; Registers used:
  2449 ;;		wreg
  2450 ;; Tracked objects:
  2451 ;;		On entry : 0/0
  2452 ;;		On exit  : 0/0
  2453 ;;		Unchanged: 0/0
  2454 ;; Data sizes:     COMRAM   BANK0   BANK1   BANK2   BANK3   BANK4   BANK5   BANK6   BANK7
  2455 ;;      Params:         0       0       0       0       0       0       0       0       0
  2456 ;;      Locals:         0       0       0       0       0       0       0       0       0
  2457 ;;      Temps:          0       0       0       0       0       0       0       0       0
  2458 ;;      Totals:         0       0       0       0       0       0       0       0       0
  2459 ;;Total ram usage:        0 bytes
  2460 ;; Hardware stack levels used: 1
  2461 ;; This function calls:
  2462 ;;		Nothing
  2463 ;; This function is called by:
  2464 ;;		_I2C2_DO_ADDRESS_NACK
  2465 ;;		_I2C2_MasterFsm
  2466 ;; This function uses a non-reentrant model
  2467 ;;
  2468                           
  2469                           	psect	text25
  2470  00140A                     __ptext25:
  2471                           	callstack 0
  2472  00140A                     _I2C2_DO_SEND_RESTART:
  2473                           	callstack 25
  2474  00140A                     
  2475                           ;mcc_generated_files/i2c2_master.c: 518:     return I2C2_SEND_ADR_READ;
  2476  00140A  0E01               	movlw	1
  2477  00140C  0012               	return		;funcret
  2478  00140E                     __end_of_I2C2_DO_SEND_RESTART:
  2479                           	callstack 0
  2480                           
  2481 ;; *************** function _I2C2_DO_SEND_RESTART_WRITE *****************
  2482 ;; Defined at:
  2483 ;;		line 510 in file "mcc_generated_files/i2c2_master.c"
  2484 ;; Parameters:    Size  Location     Type
  2485 ;;		None
  2486 ;; Auto vars:     Size  Location     Type
  2487 ;;		None
  2488 ;; Return value:  Size  Location     Type
  2489 ;;                  1    wreg      enum E22984
  2490 ;; Registers used:
  2491 ;;		wreg
  2492 ;; Tracked objects:
  2493 ;;		On entry : 0/0
  2494 ;;		On exit  : 0/0
  2495 ;;		Unchanged: 0/0
  2496 ;; Data sizes:     COMRAM   BANK0   BANK1   BANK2   BANK3   BANK4   BANK5   BANK6   BANK7
  2497 ;;      Params:         0       0       0       0       0       0       0       0       0
  2498 ;;      Locals:         0       0       0       0       0       0       0       0       0
  2499 ;;      Temps:          0       0       0       0       0       0       0       0       0
  2500 ;;      Totals:         0       0       0       0       0       0       0       0       0
  2501 ;;Total ram usage:        0 bytes
  2502 ;; Hardware stack levels used: 1
  2503 ;; This function calls:
  2504 ;;		Nothing
  2505 ;; This function is called by:
  2506 ;;		_I2C2_DO_TX
  2507 ;;		_I2C2_DO_BUS_COLLISION
  2508 ;;		_I2C2_MasterFsm
  2509 ;; This function uses a non-reentrant model
  2510 ;;
  2511                           
  2512                           	psect	text26
  2513  00140E                     __ptext26:
  2514                           	callstack 0
  2515  00140E                     _I2C2_DO_SEND_RESTART_WRITE:
  2516                           	callstack 24
  2517  00140E                     
  2518                           ;mcc_generated_files/i2c2_master.c: 512:     return I2C2_SEND_ADR_WRITE;
  2519  00140E  0E02               	movlw	2
  2520  001410  0012               	return		;funcret
  2521  001412                     __end_of_I2C2_DO_SEND_RESTART_WRITE:
  2522                           	callstack 0
  2523                           
  2524 ;; *************** function _I2C2_DO_SEND_RESTART_READ *****************
  2525 ;; Defined at:
  2526 ;;		line 504 in file "mcc_generated_files/i2c2_master.c"
  2527 ;; Parameters:    Size  Location     Type
  2528 ;;		None
  2529 ;; Auto vars:     Size  Location     Type
  2530 ;;		None
  2531 ;; Return value:  Size  Location     Type
  2532 ;;                  1    wreg      enum E22984
  2533 ;; Registers used:
  2534 ;;		wreg, fsr2l, fsr2h, status,2, status,0, pcl, pclath, pclatu, tosl, prodl, prodh, cstack
  2535 ;; Tracked objects:
  2536 ;;		On entry : 0/0
  2537 ;;		On exit  : 0/0
  2538 ;;		Unchanged: 0/0
  2539 ;; Data sizes:     COMRAM   BANK0   BANK1   BANK2   BANK3   BANK4   BANK5   BANK6   BANK7
  2540 ;;      Params:         0       0       0       0       0       0       0       0       0
  2541 ;;      Locals:         0       0       0       0       0       0       0       0       0
  2542 ;;      Temps:          0       0       0       0       0       0       0       0       0
  2543 ;;      Totals:         0       0       0       0       0       0       0       0       0
  2544 ;;Total ram usage:        0 bytes
  2545 ;; Hardware stack levels used: 1
  2546 ;; Hardware stack levels required when called: 5
  2547 ;; This function calls:
  2548 ;;		_I2C2_DO_SEND_ADR_READ
  2549 ;;		_I2C2_MasterSetCounter
  2550 ;; This function is called by:
  2551 ;;		_I2C2_DO_TX
  2552 ;;		_I2C2_DO_BUS_COLLISION
  2553 ;;		_I2C2_MasterFsm
  2554 ;; This function uses a non-reentrant model
  2555 ;;
  2556                           
  2557                           	psect	text27
  2558  001358                     __ptext27:
  2559                           	callstack 0
  2560  001358                     _I2C2_DO_SEND_RESTART_READ:
  2561                           	callstack 19
  2562  001358                     
  2563                           ;mcc_generated_files/i2c2_master.c: 506:     I2C2_MasterSetCounter((uint8_t) I2C2_Status
      +                          .data_length);
  2564  001358  5020               	movf	(_I2C2_Status+31)^0,w,c
  2565  00135A  ECC2  F009         	call	_I2C2_MasterSetCounter
  2566  00135E                     
  2567                           ;mcc_generated_files/i2c2_master.c: 507:     return I2C2_DO_SEND_ADR_READ();
  2568  00135E  EC7E  F008         	call	_I2C2_DO_SEND_ADR_READ	;wreg free
  2569  001362  0012               	return		;funcret
  2570  001364                     __end_of_I2C2_DO_SEND_RESTART_READ:
  2571                           	callstack 0
  2572                           
  2573 ;; *************** function _I2C2_DO_RX_EMPTY *****************
  2574 ;; Defined at:
  2575 ;;		line 479 in file "mcc_generated_files/i2c2_master.c"
  2576 ;; Parameters:    Size  Location     Type
  2577 ;;		None
  2578 ;; Auto vars:     Size  Location     Type
  2579 ;;		None
  2580 ;; Return value:  Size  Location     Type
  2581 ;;                  1    wreg      enum E22984
  2582 ;; Registers used:
  2583 ;;		wreg, fsr2l, fsr2h, status,2, status,0, pcl, pclath, pclatu, tosl, prodl, prodh, cstack
  2584 ;; Tracked objects:
  2585 ;;		On entry : 0/0
  2586 ;;		On exit  : 0/0
  2587 ;;		Unchanged: 0/0
  2588 ;; Data sizes:     COMRAM   BANK0   BANK1   BANK2   BANK3   BANK4   BANK5   BANK6   BANK7
  2589 ;;      Params:         0       0       0       0       0       0       0       0       0
  2590 ;;      Locals:         0       0       0       0       0       0       0       0       0
  2591 ;;      Temps:          2       0       0       0       0       0       0       0       0
  2592 ;;      Totals:         2       0       0       0       0       0       0       0       0
  2593 ;;Total ram usage:        2 bytes
  2594 ;; Hardware stack levels used: 1
  2595 ;; Hardware stack levels required when called: 3
  2596 ;; This function calls:
  2597 ;;		Absolute function
  2598 ;;		_I2C2_CallbackReturnReset
  2599 ;;		_I2C2_CallbackReturnStop
  2600 ;;		_I2C2_MasterDisableRestart
  2601 ;;		_I2C2_MasterEnableRestart
  2602 ;;		_I2C2_MasterSetCounter
  2603 ;;		_rd1RegCompleteHandler
  2604 ;;		_rd2RegCompleteHandler
  2605 ;;		_rdBlkRegCompleteHandler
  2606 ;;		_wr1RegCompleteHandler
  2607 ;;		_wr2RegCompleteHandler
  2608 ;; This function is called by:
  2609 ;;		_I2C2_DO_SEND_ADR_READ
  2610 ;;		_I2C2_DO_RX
  2611 ;;		_I2C2_MasterFsm
  2612 ;; This function uses a non-reentrant model
  2613 ;;
  2614                           
  2615                           	psect	text28
  2616  00094C                     __ptext28:
  2617                           	callstack 0
  2618  00094C                     _I2C2_DO_RX_EMPTY:
  2619                           	callstack 19
  2620  00094C                     
  2621                           ;mcc_generated_files/i2c2_master.c: 481:     I2C2_Status.bufferFree = 1;
  2622  00094C  8824               	bsf	(_I2C2_Status+35)^0,4,c
  2623                           
  2624                           ;mcc_generated_files/i2c2_master.c: 482:     switch(I2C2_Status.callbackTable[I2C2_DATA_
      +                          COMPLETE](I2C2_Status.callbackPayload[I2C2_DATA_COMPLETE]))
  2625  00094E  EFC7  F004         	goto	l2275
  2626  000952                     l2247:
  2627                           
  2628                           ;mcc_generated_files/i2c2_master.c: 485:             I2C2_MasterEnableRestart();
  2629  000952  ECF6  F009         	call	_I2C2_MasterEnableRestart	;wreg free
  2630  000956                     
  2631                           ;mcc_generated_files/i2c2_master.c: 486:             return I2C2_SEND_RESTART_WRITE;
  2632  000956  0E08               	movlw	8
  2633  000958  EFF4  F004         	goto	l465
  2634  00095C                     l2253:
  2635                           
  2636                           ;mcc_generated_files/i2c2_master.c: 488:             I2C2_MasterEnableRestart();
  2637  00095C  ECF6  F009         	call	_I2C2_MasterEnableRestart	;wreg free
  2638  000960                     
  2639                           ;mcc_generated_files/i2c2_master.c: 489:             return I2C2_SEND_RESTART_READ;
  2640  000960  0E07               	movlw	7
  2641  000962  EFF4  F004         	goto	l465
  2642  000966                     l2259:
  2643                           
  2644                           ;mcc_generated_files/i2c2_master.c: 492:             I2C2_MasterSetCounter((uint8_t) (I2
      +                          C2_Status.data_length + 1));
  2645  000966  2820               	incf	(_I2C2_Status+31)^0,w,c
  2646  000968  ECC2  F009         	call	_I2C2_MasterSetCounter
  2647  00096C                     
  2648                           ;mcc_generated_files/i2c2_master.c: 493:             return I2C2_RX;
  2649  00096C  0E04               	movlw	4
  2650  00096E  EFF4  F004         	goto	l465
  2651  000972                     l2265:
  2652                           
  2653                           ;mcc_generated_files/i2c2_master.c: 496:             if(I2C2_Status.state != I2C2_SEND_R
      +                          ESTART_READ)
  2654  000972  0E07               	movlw	7
  2655  000974  1822               	xorwf	(_I2C2_Status+33)^0,w,c
  2656  000976  B4D8               	btfsc	status,2,c
  2657  000978  EFC0  F004         	goto	u611
  2658  00097C  EFC2  F004         	goto	u610
  2659  000980                     u611:
  2660  000980  EFC4  F004         	goto	l2269
  2661  000984                     u610:
  2662  000984                     
  2663                           ;mcc_generated_files/i2c2_master.c: 497:             {;mcc_generated_files/i2c2_master.c
      +                          : 498:                 I2C2_MasterDisableRestart();
  2664  000984  ECF9  F009         	call	_I2C2_MasterDisableRestart	;wreg free
  2665  000988                     l2269:
  2666                           
  2667                           ;mcc_generated_files/i2c2_master.c: 500:             return I2C2_RESET;
  2668  000988  0E0F               	movlw	15
  2669  00098A  EFF4  F004         	goto	l465
  2670  00098E                     l2275:
  2671  00098E  C00D  F036         	movff	_I2C2_Status+12,I2C2_CallbackReturnReset@funPtr
  2672  000992  C00E  F037         	movff	_I2C2_Status+13,I2C2_CallbackReturnReset@funPtr+1
  2673  000996  D802               	call	u628
  2674  000998  EFD8  F004         	goto	u629
  2675  00099C                     u628:
  2676  00099C  0005               	push	
  2677  00099E  6EFA               	movwf	pclath,c
  2678  0009A0  5001               	movf	_I2C2_Status^0,w,c
  2679  0009A2  6EFD               	movwf	tosl,c
  2680  0009A4  5002               	movf	(_I2C2_Status+1)^0,w,c
  2681  0009A6  6EFE               	movwf	tosh,c
  2682  0009A8  50F8               	movf	tblptru,w,c
  2683  0009AA  6EFF               	movwf	tosu,c
  2684  0009AC  50FA               	movf	pclath,w,c
  2685  0009AE  0012               	return		;indir
  2686  0009B0                     u629:
  2687  0009B0  6E38               	movwf	??_I2C2_DO_RX_EMPTY^0,c
  2688  0009B2  6A39               	clrf	(??_I2C2_DO_RX_EMPTY+1)^0,c
  2689                           
  2690                           ; Switch on 2 bytes has been partitioned into a top level switch of size 1, and 1 sub-sw
      +                          itches
  2691                           ; Switch size 1, requested type "simple"
  2692                           ; Number of cases is 1, Range of values is 0 to 0
  2693                           ; switch strategies available:
  2694                           ; Name         Instructions Cycles
  2695                           ; simple_byte            4     3 (average)
  2696                           ;	Chosen strategy is simple_byte
  2697  0009B4  5039               	movf	(??_I2C2_DO_RX_EMPTY+1)^0,w,c
  2698  0009B6  0A00               	xorlw	0	; case 0
  2699  0009B8  B4D8               	btfsc	status,2,c
  2700  0009BA  EFE1  F004         	goto	l2807
  2701  0009BE  EFB9  F004         	goto	l2265
  2702  0009C2                     l2807:
  2703                           
  2704                           ; Switch size 1, requested type "simple"
  2705                           ; Number of cases is 4, Range of values is 1 to 4
  2706                           ; switch strategies available:
  2707                           ; Name         Instructions Cycles
  2708                           ; simple_byte           13     7 (average)
  2709                           ;	Chosen strategy is simple_byte
  2710  0009C2  5038               	movf	??_I2C2_DO_RX_EMPTY^0,w,c
  2711  0009C4  0A01               	xorlw	1	; case 1
  2712  0009C6  B4D8               	btfsc	status,2,c
  2713  0009C8  EFB9  F004         	goto	l2265
  2714  0009CC  0A03               	xorlw	3	; case 2
  2715  0009CE  B4D8               	btfsc	status,2,c
  2716  0009D0  EFAE  F004         	goto	l2253
  2717  0009D4  0A01               	xorlw	1	; case 3
  2718  0009D6  B4D8               	btfsc	status,2,c
  2719  0009D8  EFA9  F004         	goto	l2247
  2720  0009DC  0A07               	xorlw	7	; case 4
  2721  0009DE  B4D8               	btfsc	status,2,c
  2722  0009E0  EFB3  F004         	goto	l2259
  2723  0009E4  EFB9  F004         	goto	l2265
  2724  0009E8                     l465:
  2725  0009E8  0012               	return		;funcret
  2726  0009EA                     __end_of_I2C2_DO_RX_EMPTY:
  2727                           	callstack 0
  2728                           
  2729 ;; *************** function _I2C2_DO_TX_EMPTY *****************
  2730 ;; Defined at:
  2731 ;;		line 460 in file "mcc_generated_files/i2c2_master.c"
  2732 ;; Parameters:    Size  Location     Type
  2733 ;;		None
  2734 ;; Auto vars:     Size  Location     Type
  2735 ;;		None
  2736 ;; Return value:  Size  Location     Type
  2737 ;;                  1    wreg      enum E22984
  2738 ;; Registers used:
  2739 ;;		wreg, fsr2l, fsr2h, status,2, status,0, pcl, pclath, pclatu, tosl, prodl, prodh, cstack
  2740 ;; Tracked objects:
  2741 ;;		On entry : 0/0
  2742 ;;		On exit  : 0/0
  2743 ;;		Unchanged: 0/0
  2744 ;; Data sizes:     COMRAM   BANK0   BANK1   BANK2   BANK3   BANK4   BANK5   BANK6   BANK7
  2745 ;;      Params:         0       0       0       0       0       0       0       0       0
  2746 ;;      Locals:         0       0       0       0       0       0       0       0       0
  2747 ;;      Temps:          2       0       0       0       0       0       0       0       0
  2748 ;;      Totals:         2       0       0       0       0       0       0       0       0
  2749 ;;Total ram usage:        2 bytes
  2750 ;; Hardware stack levels used: 1
  2751 ;; Hardware stack levels required when called: 3
  2752 ;; This function calls:
  2753 ;;		Absolute function
  2754 ;;		_I2C2_CallbackReturnReset
  2755 ;;		_I2C2_CallbackReturnStop
  2756 ;;		_I2C2_MasterDisableRestart
  2757 ;;		_I2C2_MasterEnableRestart
  2758 ;;		_I2C2_MasterSetCounter
  2759 ;;		_rd1RegCompleteHandler
  2760 ;;		_rd2RegCompleteHandler
  2761 ;;		_rdBlkRegCompleteHandler
  2762 ;;		_wr1RegCompleteHandler
  2763 ;;		_wr2RegCompleteHandler
  2764 ;; This function is called by:
  2765 ;;		_I2C2_DO_TX
  2766 ;;		_I2C2_MasterFsm
  2767 ;; This function uses a non-reentrant model
  2768 ;;
  2769                           
  2770                           	psect	text29
  2771  000C10                     __ptext29:
  2772                           	callstack 0
  2773  000C10                     _I2C2_DO_TX_EMPTY:
  2774                           	callstack 22
  2775  000C10                     
  2776                           ;mcc_generated_files/i2c2_master.c: 462:     I2C2_Status.bufferFree = 1;
  2777  000C10  8824               	bsf	(_I2C2_Status+35)^0,4,c
  2778                           
  2779                           ;mcc_generated_files/i2c2_master.c: 463:     switch(I2C2_Status.callbackTable[I2C2_DATA_
      +                          COMPLETE](I2C2_Status.callbackPayload[I2C2_DATA_COMPLETE]))
  2780  000C12  EF1B  F006         	goto	l2335
  2781  000C16                     l2315:
  2782                           
  2783                           ;mcc_generated_files/i2c2_master.c: 466:             I2C2_MasterEnableRestart();
  2784  000C16  ECF6  F009         	call	_I2C2_MasterEnableRestart	;wreg free
  2785  000C1A                     
  2786                           ;mcc_generated_files/i2c2_master.c: 467:             return I2C2_SEND_RESTART_READ;
  2787  000C1A  0E07               	movlw	7
  2788  000C1C  EF44  F006         	goto	l456
  2789  000C20                     l2321:
  2790                           
  2791                           ;mcc_generated_files/i2c2_master.c: 470:             I2C2_MasterSetCounter((uint8_t) I2C
      +                          2_Status.data_length + 1);
  2792  000C20  2820               	incf	(_I2C2_Status+31)^0,w,c
  2793  000C22  ECC2  F009         	call	_I2C2_MasterSetCounter
  2794  000C26                     
  2795                           ;mcc_generated_files/i2c2_master.c: 471:             return I2C2_TX;
  2796  000C26  0E03               	movlw	3
  2797  000C28  EF44  F006         	goto	l456
  2798  000C2C                     l2327:
  2799                           
  2800                           ;mcc_generated_files/i2c2_master.c: 474:             I2C2_MasterDisableRestart();
  2801  000C2C  ECF9  F009         	call	_I2C2_MasterDisableRestart	;wreg free
  2802  000C30                     
  2803                           ;mcc_generated_files/i2c2_master.c: 475:             return I2C2_SEND_STOP;
  2804  000C30  0E0A               	movlw	10
  2805  000C32  EF44  F006         	goto	l456
  2806  000C36                     l2335:
  2807  000C36  C00D  F036         	movff	_I2C2_Status+12,I2C2_CallbackReturnReset@funPtr
  2808  000C3A  C00E  F037         	movff	_I2C2_Status+13,I2C2_CallbackReturnReset@funPtr+1
  2809  000C3E  D802               	call	u668
  2810  000C40  EF2C  F006         	goto	u669
  2811  000C44                     u668:
  2812  000C44  0005               	push	
  2813  000C46  6EFA               	movwf	pclath,c
  2814  000C48  5001               	movf	_I2C2_Status^0,w,c
  2815  000C4A  6EFD               	movwf	tosl,c
  2816  000C4C  5002               	movf	(_I2C2_Status+1)^0,w,c
  2817  000C4E  6EFE               	movwf	tosh,c
  2818  000C50  50F8               	movf	tblptru,w,c
  2819  000C52  6EFF               	movwf	tosu,c
  2820  000C54  50FA               	movf	pclath,w,c
  2821  000C56  0012               	return		;indir
  2822  000C58                     u669:
  2823  000C58  6E38               	movwf	??_I2C2_DO_TX_EMPTY^0,c
  2824  000C5A  6A39               	clrf	(??_I2C2_DO_TX_EMPTY+1)^0,c
  2825                           
  2826                           ; Switch on 2 bytes has been partitioned into a top level switch of size 1, and 1 sub-sw
      +                          itches
  2827                           ; Switch size 1, requested type "simple"
  2828                           ; Number of cases is 1, Range of values is 0 to 0
  2829                           ; switch strategies available:
  2830                           ; Name         Instructions Cycles
  2831                           ; simple_byte            4     3 (average)
  2832                           ;	Chosen strategy is simple_byte
  2833  000C5C  5039               	movf	(??_I2C2_DO_TX_EMPTY+1)^0,w,c
  2834  000C5E  0A00               	xorlw	0	; case 0
  2835  000C60  B4D8               	btfsc	status,2,c
  2836  000C62  EF35  F006         	goto	l2809
  2837  000C66  EF16  F006         	goto	l2327
  2838  000C6A                     l2809:
  2839                           
  2840                           ; Switch size 1, requested type "simple"
  2841                           ; Number of cases is 3, Range of values is 1 to 4
  2842                           ; switch strategies available:
  2843                           ; Name         Instructions Cycles
  2844                           ; simple_byte           10     6 (average)
  2845                           ;	Chosen strategy is simple_byte
  2846  000C6A  5038               	movf	??_I2C2_DO_TX_EMPTY^0,w,c
  2847  000C6C  0A01               	xorlw	1	; case 1
  2848  000C6E  B4D8               	btfsc	status,2,c
  2849  000C70  EF16  F006         	goto	l2327
  2850  000C74  0A03               	xorlw	3	; case 2
  2851  000C76  B4D8               	btfsc	status,2,c
  2852  000C78  EF0B  F006         	goto	l2315
  2853  000C7C  0A06               	xorlw	6	; case 4
  2854  000C7E  B4D8               	btfsc	status,2,c
  2855  000C80  EF10  F006         	goto	l2321
  2856  000C84  EF16  F006         	goto	l2327
  2857  000C88                     l456:
  2858  000C88  0012               	return		;funcret
  2859  000C8A                     __end_of_I2C2_DO_TX_EMPTY:
  2860                           	callstack 0
  2861                           
  2862 ;; *************** function _I2C2_DO_RX *****************
  2863 ;; Defined at:
  2864 ;;		line 436 in file "mcc_generated_files/i2c2_master.c"
  2865 ;; Parameters:    Size  Location     Type
  2866 ;;		None
  2867 ;; Auto vars:     Size  Location     Type
  2868 ;;  retFsmState     1   15[COMRAM] enum E22984
  2869 ;; Return value:  Size  Location     Type
  2870 ;;                  1    wreg      enum E22984
  2871 ;; Registers used:
  2872 ;;		wreg, fsr2l, fsr2h, status,2, status,0, pcl, pclath, pclatu, tosl, prodl, prodh, cstack
  2873 ;; Tracked objects:
  2874 ;;		On entry : 0/0
  2875 ;;		On exit  : 0/0
  2876 ;;		Unchanged: 0/0
  2877 ;; Data sizes:     COMRAM   BANK0   BANK1   BANK2   BANK3   BANK4   BANK5   BANK6   BANK7
  2878 ;;      Params:         0       0       0       0       0       0       0       0       0
  2879 ;;      Locals:         1       0       0       0       0       0       0       0       0
  2880 ;;      Temps:          2       0       0       0       0       0       0       0       0
  2881 ;;      Totals:         3       0       0       0       0       0       0       0       0
  2882 ;;Total ram usage:        3 bytes
  2883 ;; Hardware stack levels used: 1
  2884 ;; Hardware stack levels required when called: 4
  2885 ;; This function calls:
  2886 ;;		_I2C2_DO_RX_EMPTY
  2887 ;;		_I2C2_MasterGetRxData
  2888 ;;		_I2C2_MasterIsRxBufFull
  2889 ;; This function is called by:
  2890 ;;		_I2C2_MasterFsm
  2891 ;; This function uses a non-reentrant model
  2892 ;;
  2893                           
  2894                           	psect	text30
  2895  0009EA                     __ptext30:
  2896                           	callstack 0
  2897  0009EA                     _I2C2_DO_RX:
  2898                           	callstack 21
  2899  0009EA                     
  2900                           ;mcc_generated_files/i2c2_master.c: 438:     if(!I2C2_MasterIsRxBufFull())
  2901  0009EA  EC58  F009         	call	_I2C2_MasterIsRxBufFull	;wreg free
  2902  0009EE  0900               	iorlw	0
  2903  0009F0  A4D8               	btfss	status,2,c
  2904  0009F2  EFFD  F004         	goto	u721
  2905  0009F6  EFFF  F004         	goto	u720
  2906  0009FA                     u721:
  2907  0009FA  EF02  F005         	goto	l2409
  2908  0009FE                     u720:
  2909  0009FE                     l2405:
  2910                           
  2911                           ;mcc_generated_files/i2c2_master.c: 439:     {;mcc_generated_files/i2c2_master.c: 440:  
      +                                 return I2C2_RX;
  2912  0009FE  0E04               	movlw	4
  2913  000A00  EF40  F005         	goto	l448
  2914  000A04                     l2409:
  2915                           
  2916                           ;mcc_generated_files/i2c2_master.c: 442:     if(I2C2_Status.addressNackCheck)
  2917  000A04  5024               	movf	(_I2C2_Status+35)^0,w,c
  2918  000A06  0B03               	andlw	3
  2919  000A08  0900               	iorlw	0
  2920  000A0A  B4D8               	btfsc	status,2,c
  2921  000A0C  EF0A  F005         	goto	u731
  2922  000A10  EF0C  F005         	goto	u730
  2923  000A14                     u731:
  2924  000A14  EF18  F005         	goto	l449
  2925  000A18                     u730:
  2926  000A18                     
  2927                           ;mcc_generated_files/i2c2_master.c: 443:     {;mcc_generated_files/i2c2_master.c: 444:  
      +                                 I2C2_Status.addressNackCheck--;
  2928  000A18  0E01               	movlw	1
  2929  000A1A  6E3A               	movwf	??_I2C2_DO_RX^0,c
  2930  000A1C  5024               	movf	(_I2C2_Status+35)^0,w,c
  2931  000A1E  0B03               	andlw	3
  2932  000A20  6E3B               	movwf	(??_I2C2_DO_RX+1)^0,c
  2933  000A22  503A               	movf	??_I2C2_DO_RX^0,w,c
  2934  000A24  5E3B               	subwf	(??_I2C2_DO_RX+1)^0,f,c
  2935  000A26  5024               	movf	(_I2C2_Status+35)^0,w,c
  2936  000A28  183B               	xorwf	(??_I2C2_DO_RX+1)^0,w,c
  2937  000A2A  0BFC               	andlw	-4
  2938  000A2C  183B               	xorwf	(??_I2C2_DO_RX+1)^0,w,c
  2939  000A2E  6E24               	movwf	(_I2C2_Status+35)^0,c
  2940  000A30                     l449:
  2941                           
  2942                           ;mcc_generated_files/i2c2_master.c: 447:     if(--I2C2_Status.data_length)
  2943  000A30  0620               	decf	(_I2C2_Status+31)^0,f,c
  2944  000A32  A0D8               	btfss	status,0,c
  2945  000A34  0621               	decf	(_I2C2_Status+32)^0,f,c
  2946  000A36  5020               	movf	(_I2C2_Status+31)^0,w,c
  2947  000A38  1021               	iorwf	(_I2C2_Status+32)^0,w,c
  2948  000A3A  B4D8               	btfsc	status,2,c
  2949  000A3C  EF22  F005         	goto	u741
  2950  000A40  EF24  F005         	goto	u740
  2951  000A44                     u741:
  2952  000A44  EF31  F005         	goto	l2423
  2953  000A48                     u740:
  2954  000A48                     
  2955                           ;mcc_generated_files/i2c2_master.c: 448:     {;mcc_generated_files/i2c2_master.c: 449:  
      +                                 *I2C2_Status.data_ptr++ = I2C2_MasterGetRxData();
  2956  000A48  ECF3  F009         	call	_I2C2_MasterGetRxData	;wreg free
  2957  000A4C  0060  F07B  FFD9   	movff	_I2C2_Status+29,fsr2l
  2958  000A52  0060  F07F  FFDA   	movff	_I2C2_Status+30,fsr2h
  2959  000A58  6EDF               	movwf	indf2,c
  2960  000A5A  4A1E               	infsnz	(_I2C2_Status+29)^0,f,c
  2961  000A5C  2A1F               	incf	(_I2C2_Status+30)^0,f,c
  2962  000A5E  EFFF  F004         	goto	l2405
  2963  000A62                     l2423:
  2964                           
  2965                           ;mcc_generated_files/i2c2_master.c: 453:     {;mcc_generated_files/i2c2_master.c: 454:  
      +                                 i2c2_fsm_states_t retFsmState = I2C2_DO_RX_EMPTY();
  2966  000A62  ECA6  F004         	call	_I2C2_DO_RX_EMPTY	;wreg free
  2967  000A66  6E3C               	movwf	I2C2_DO_RX@retFsmState^0,c
  2968  000A68                     
  2969                           ;mcc_generated_files/i2c2_master.c: 455:         *I2C2_Status.data_ptr++ = I2C2_MasterGe
      +                          tRxData();
  2970  000A68  ECF3  F009         	call	_I2C2_MasterGetRxData	;wreg free
  2971  000A6C  0060  F07B  FFD9   	movff	_I2C2_Status+29,fsr2l
  2972  000A72  0060  F07F  FFDA   	movff	_I2C2_Status+30,fsr2h
  2973  000A78  6EDF               	movwf	indf2,c
  2974  000A7A  4A1E               	infsnz	(_I2C2_Status+29)^0,f,c
  2975  000A7C  2A1F               	incf	(_I2C2_Status+30)^0,f,c
  2976  000A7E                     
  2977                           ;mcc_generated_files/i2c2_master.c: 456:         return retFsmState;
  2978  000A7E  503C               	movf	I2C2_DO_RX@retFsmState^0,w,c
  2979  000A80                     l448:
  2980  000A80  0012               	return		;funcret
  2981  000A82                     __end_of_I2C2_DO_RX:
  2982                           	callstack 0
  2983                           
  2984 ;; *************** function _I2C2_DO_TX *****************
  2985 ;; Defined at:
  2986 ;;		line 403 in file "mcc_generated_files/i2c2_master.c"
  2987 ;; Parameters:    Size  Location     Type
  2988 ;;		None
  2989 ;; Auto vars:     Size  Location     Type
  2990 ;;  retFsmState     1   16[COMRAM] enum E22984
  2991 ;;  dataTx          1   15[COMRAM] unsigned char 
  2992 ;; Return value:  Size  Location     Type
  2993 ;;                  1    wreg      enum E22984
  2994 ;; Registers used:
  2995 ;;		wreg, fsr2l, fsr2h, status,2, status,0, pcl, pclath, pclatu, tosl, prodl, prodh, cstack
  2996 ;; Tracked objects:
  2997 ;;		On entry : 0/0
  2998 ;;		On exit  : 0/0
  2999 ;;		Unchanged: 0/0
  3000 ;; Data sizes:     COMRAM   BANK0   BANK1   BANK2   BANK3   BANK4   BANK5   BANK6   BANK7
  3001 ;;      Params:         0       0       0       0       0       0       0       0       0
  3002 ;;      Locals:         4       0       0       0       0       0       0       0       0
  3003 ;;      Temps:          2       0       0       0       0       0       0       0       0
  3004 ;;      Totals:         6       0       0       0       0       0       0       0       0
  3005 ;;Total ram usage:        6 bytes
  3006 ;; Hardware stack levels used: 1
  3007 ;; Hardware stack levels required when called: 6
  3008 ;; This function calls:
  3009 ;;		Absolute function
  3010 ;;		_I2C2_CallbackReturnReset
  3011 ;;		_I2C2_CallbackReturnStop
  3012 ;;		_I2C2_DO_SEND_RESTART_READ
  3013 ;;		_I2C2_DO_SEND_RESTART_WRITE
  3014 ;;		_I2C2_DO_TX_EMPTY
  3015 ;;		_I2C2_MasterIsNack
  3016 ;;		_I2C2_MasterIsTxBufEmpty
  3017 ;;		_I2C2_MasterSendTxData
  3018 ;;		_rd1RegCompleteHandler
  3019 ;;		_rd2RegCompleteHandler
  3020 ;;		_rdBlkRegCompleteHandler
  3021 ;;		_wr1RegCompleteHandler
  3022 ;;		_wr2RegCompleteHandler
  3023 ;; This function is called by:
  3024 ;;		_I2C2_MasterFsm
  3025 ;; This function uses a non-reentrant model
  3026 ;;
  3027                           
  3028                           	psect	text31
  3029  000828                     __ptext31:
  3030                           	callstack 0
  3031  000828                     _I2C2_DO_TX:
  3032                           	callstack 19
  3033  000828                     
  3034                           ;mcc_generated_files/i2c2_master.c: 405:     if(I2C2_MasterIsNack())
  3035  000828  EC4D  F009         	call	_I2C2_MasterIsNack	;wreg free
  3036  00082C  0900               	iorlw	0
  3037  00082E  B4D8               	btfsc	status,2,c
  3038  000830  EF1C  F004         	goto	u671
  3039  000834  EF1E  F004         	goto	u670
  3040  000838                     u671:
  3041  000838  EF5A  F004         	goto	l2369
  3042  00083C                     u670:
  3043  00083C  EF2B  F004         	goto	l2367
  3044  000840                     l2353:
  3045                           
  3046                           ;mcc_generated_files/i2c2_master.c: 410:                 return I2C2_DO_SEND_RESTART_REA
      +                          D();
  3047  000840  ECAC  F009         	call	_I2C2_DO_SEND_RESTART_READ	;wreg free
  3048  000844  EFA5  F004         	goto	l431
  3049  000848                     l2357:
  3050                           
  3051                           ;mcc_generated_files/i2c2_master.c: 412:                   return I2C2_DO_SEND_RESTART_W
      +                          RITE();
  3052  000848  EC07  F00A         	call	_I2C2_DO_SEND_RESTART_WRITE	;wreg free
  3053  00084C  EFA5  F004         	goto	l431
  3054  000850                     l2361:
  3055                           
  3056                           ;mcc_generated_files/i2c2_master.c: 416:                 return I2C2_IDLE;
  3057  000850  0E00               	movlw	0
  3058  000852  EFA5  F004         	goto	l431
  3059  000856                     l2367:
  3060  000856  C013  F036         	movff	_I2C2_Status+18,I2C2_CallbackReturnReset@funPtr
  3061  00085A  C014  F037         	movff	_I2C2_Status+19,I2C2_CallbackReturnReset@funPtr+1
  3062  00085E  EE20  F007         	lfsr	2,_I2C2_Status+6
  3063  000862  D802               	call	u688
  3064  000864  EF3E  F004         	goto	u689
  3065  000868                     u688:
  3066  000868  0005               	push	
  3067  00086A  6EFA               	movwf	pclath,c
  3068  00086C  50DE               	movf	postinc2,w,c
  3069  00086E  6EFD               	movwf	tosl,c
  3070  000870  50DE               	movf	postinc2,w,c
  3071  000872  6EFE               	movwf	tosh,c
  3072  000874  50F8               	movf	tblptru,w,c
  3073  000876  6EFF               	movwf	tosu,c
  3074  000878  50FA               	movf	pclath,w,c
  3075  00087A  0012               	return		;indir
  3076  00087C                     u689:
  3077  00087C  6E38               	movwf	??_I2C2_DO_TX^0,c
  3078  00087E  6A39               	clrf	(??_I2C2_DO_TX+1)^0,c
  3079                           
  3080                           ; Switch on 2 bytes has been partitioned into a top level switch of size 1, and 1 sub-sw
      +                          itches
  3081                           ; Switch size 1, requested type "simple"
  3082                           ; Number of cases is 1, Range of values is 0 to 0
  3083                           ; switch strategies available:
  3084                           ; Name         Instructions Cycles
  3085                           ; simple_byte            4     3 (average)
  3086                           ;	Chosen strategy is simple_byte
  3087  000880  5039               	movf	(??_I2C2_DO_TX+1)^0,w,c
  3088  000882  0A00               	xorlw	0	; case 0
  3089  000884  B4D8               	btfsc	status,2,c
  3090  000886  EF47  F004         	goto	l2811
  3091  00088A  EF28  F004         	goto	l2361
  3092  00088E                     l2811:
  3093                           
  3094                           ; Switch size 1, requested type "simple"
  3095                           ; Number of cases is 4, Range of values is 1 to 4
  3096                           ; switch strategies available:
  3097                           ; Name         Instructions Cycles
  3098                           ; simple_byte           13     7 (average)
  3099                           ;	Chosen strategy is simple_byte
  3100  00088E  5038               	movf	??_I2C2_DO_TX^0,w,c
  3101  000890  0A01               	xorlw	1	; case 1
  3102  000892  B4D8               	btfsc	status,2,c
  3103  000894  EF28  F004         	goto	l2361
  3104  000898  0A03               	xorlw	3	; case 2
  3105  00089A  B4D8               	btfsc	status,2,c
  3106  00089C  EF20  F004         	goto	l2353
  3107  0008A0  0A01               	xorlw	1	; case 3
  3108  0008A2  B4D8               	btfsc	status,2,c
  3109  0008A4  EF24  F004         	goto	l2357
  3110  0008A8  0A07               	xorlw	7	; case 4
  3111  0008AA  B4D8               	btfsc	status,2,c
  3112  0008AC  EF28  F004         	goto	l2361
  3113  0008B0  EF28  F004         	goto	l2361
  3114  0008B4                     l2369:
  3115  0008B4  EC42  F009         	call	_I2C2_MasterIsTxBufEmpty	;wreg free
  3116  0008B8  0900               	iorlw	0
  3117  0008BA  B4D8               	btfsc	status,2,c
  3118  0008BC  EF62  F004         	goto	u691
  3119  0008C0  EF64  F004         	goto	u690
  3120  0008C4                     u691:
  3121  0008C4  EFA4  F004         	goto	l2395
  3122  0008C8                     u690:
  3123  0008C8                     
  3124                           ;mcc_generated_files/i2c2_master.c: 420:     {;mcc_generated_files/i2c2_master.c: 421:  
      +                                 if(I2C2_Status.addressNackCheck)
  3125  0008C8  5024               	movf	(_I2C2_Status+35)^0,w,c
  3126  0008CA  0B03               	andlw	3
  3127  0008CC  0900               	iorlw	0
  3128  0008CE  B4D8               	btfsc	status,2,c
  3129  0008D0  EF6C  F004         	goto	u701
  3130  0008D4  EF6E  F004         	goto	u700
  3131  0008D8                     u701:
  3132  0008D8  EF7A  F004         	goto	l2375
  3133  0008DC                     u700:
  3134  0008DC                     
  3135                           ;mcc_generated_files/i2c2_master.c: 422:         {;mcc_generated_files/i2c2_master.c: 42
      +                          3:             I2C2_Status.addressNackCheck--;
  3136  0008DC  0E01               	movlw	1
  3137  0008DE  6E38               	movwf	??_I2C2_DO_TX^0,c
  3138  0008E0  5024               	movf	(_I2C2_Status+35)^0,w,c
  3139  0008E2  0B03               	andlw	3
  3140  0008E4  6E39               	movwf	(??_I2C2_DO_TX+1)^0,c
  3141  0008E6  5038               	movf	??_I2C2_DO_TX^0,w,c
  3142  0008E8  5E39               	subwf	(??_I2C2_DO_TX+1)^0,f,c
  3143  0008EA  5024               	movf	(_I2C2_Status+35)^0,w,c
  3144  0008EC  1839               	xorwf	(??_I2C2_DO_TX+1)^0,w,c
  3145  0008EE  0BFC               	andlw	-4
  3146  0008F0  1839               	xorwf	(??_I2C2_DO_TX+1)^0,w,c
  3147  0008F2  6E24               	movwf	(_I2C2_Status+35)^0,c
  3148  0008F4                     l2375:
  3149                           
  3150                           ;mcc_generated_files/i2c2_master.c: 425:         uint8_t dataTx = *I2C2_Status.data_ptr+
      +                          +;
  3151  0008F4  0060  F07B  FFD9   	movff	_I2C2_Status+29,fsr2l
  3152  0008FA  0060  F07F  FFDA   	movff	_I2C2_Status+30,fsr2h
  3153  000900  50DF               	movf	indf2,w,c
  3154  000902  6E3C               	movwf	I2C2_DO_TX@dataTx^0,c
  3155  000904  4A1E               	infsnz	(_I2C2_Status+29)^0,f,c
  3156  000906  2A1F               	incf	(_I2C2_Status+30)^0,f,c
  3157  000908                     
  3158                           ;mcc_generated_files/i2c2_master.c: 426:         i2c2_fsm_states_t retFsmState = (--I2C2
      +                          _Status.data_length)?I2C2_TX:I2C2_DO_TX_EMPTY();
  3159  000908  0620               	decf	(_I2C2_Status+31)^0,f,c
  3160  00090A  A0D8               	btfss	status,0,c
  3161  00090C  0621               	decf	(_I2C2_Status+32)^0,f,c
  3162  00090E  5020               	movf	(_I2C2_Status+31)^0,w,c
  3163  000910  1021               	iorwf	(_I2C2_Status+32)^0,w,c
  3164  000912  A4D8               	btfss	status,2,c
  3165  000914  EF8E  F004         	goto	u711
  3166  000918  EF90  F004         	goto	u710
  3167  00091C                     u711:
  3168  00091C  EF98  F004         	goto	l2383
  3169  000920                     u710:
  3170  000920  EC08  F006         	call	_I2C2_DO_TX_EMPTY	;wreg free
  3171  000924  6E38               	movwf	??_I2C2_DO_TX^0,c
  3172  000926  5038               	movf	??_I2C2_DO_TX^0,w,c
  3173  000928  6E3A               	movwf	_I2C2_DO_TX$861^0,c
  3174  00092A  6A3B               	clrf	(_I2C2_DO_TX$861+1)^0,c
  3175  00092C  EF9C  F004         	goto	l2385
  3176  000930                     l2383:
  3177  000930  0E00               	movlw	0
  3178  000932  6E3B               	movwf	(_I2C2_DO_TX$861+1)^0,c
  3179  000934  0E03               	movlw	3
  3180  000936  6E3A               	movwf	_I2C2_DO_TX$861^0,c
  3181  000938                     l2385:
  3182  000938  C03A  F03D         	movff	_I2C2_DO_TX$861,I2C2_DO_TX@retFsmState
  3183  00093C                     
  3184                           ;mcc_generated_files/i2c2_master.c: 427:         I2C2_MasterSendTxData(dataTx);
  3185  00093C  503C               	movf	I2C2_DO_TX@dataTx^0,w,c
  3186  00093E  ECBD  F009         	call	_I2C2_MasterSendTxData
  3187  000942                     
  3188                           ;mcc_generated_files/i2c2_master.c: 428:         return retFsmState;
  3189  000942  503D               	movf	I2C2_DO_TX@retFsmState^0,w,c
  3190  000944  EFA5  F004         	goto	l431
  3191  000948                     l2395:
  3192                           
  3193                           ;mcc_generated_files/i2c2_master.c: 431:     {;mcc_generated_files/i2c2_master.c: 432:  
      +                                 return I2C2_TX;
  3194  000948  0E03               	movlw	3
  3195  00094A                     l431:
  3196  00094A  0012               	return		;funcret
  3197  00094C                     __end_of_I2C2_DO_TX:
  3198                           	callstack 0
  3199                           
  3200 ;; *************** function _I2C2_DO_SEND_ADR_WRITE *****************
  3201 ;; Defined at:
  3202 ;;		line 396 in file "mcc_generated_files/i2c2_master.c"
  3203 ;; Parameters:    Size  Location     Type
  3204 ;;		None
  3205 ;; Auto vars:     Size  Location     Type
  3206 ;;		None
  3207 ;; Return value:  Size  Location     Type
  3208 ;;                  1    wreg      enum E22984
  3209 ;; Registers used:
  3210 ;;		wreg, status,2, status,0, cstack
  3211 ;; Tracked objects:
  3212 ;;		On entry : 0/0
  3213 ;;		On exit  : 0/0
  3214 ;;		Unchanged: 0/0
  3215 ;; Data sizes:     COMRAM   BANK0   BANK1   BANK2   BANK3   BANK4   BANK5   BANK6   BANK7
  3216 ;;      Params:         0       0       0       0       0       0       0       0       0
  3217 ;;      Locals:         0       0       0       0       0       0       0       0       0
  3218 ;;      Temps:          0       0       0       0       0       0       0       0       0
  3219 ;;      Totals:         0       0       0       0       0       0       0       0       0
  3220 ;;Total ram usage:        0 bytes
  3221 ;; Hardware stack levels used: 1
  3222 ;; Hardware stack levels required when called: 1
  3223 ;; This function calls:
  3224 ;;		_I2C2_MasterSendTxData
  3225 ;; This function is called by:
  3226 ;;		_I2C2_MasterOperation
  3227 ;;		_I2C2_MasterFsm
  3228 ;; This function uses a non-reentrant model
  3229 ;;
  3230                           
  3231                           	psect	text32
  3232  001308                     __ptext32:
  3233                           	callstack 0
  3234  001308                     _I2C2_DO_SEND_ADR_WRITE:
  3235                           	callstack 24
  3236  001308                     
  3237                           ;mcc_generated_files/i2c2_master.c: 398:     I2C2_Status.addressNackCheck = 2;
  3238  001308  5024               	movf	(_I2C2_Status+35)^0,w,c
  3239  00130A  0BFC               	andlw	-4
  3240  00130C  0902               	iorlw	2
  3241  00130E  6E24               	movwf	(_I2C2_Status+35)^0,c
  3242  001310                     
  3243                           ;mcc_generated_files/i2c2_master.c: 399:     I2C2_MasterSendTxData((uint8_t) (I2C2_Statu
      +                          s.address << 1));
  3244  001310  501D               	movf	(_I2C2_Status+28)^0,w,c
  3245  001312  241D               	addwf	(_I2C2_Status+28)^0,w,c
  3246  001314  ECBD  F009         	call	_I2C2_MasterSendTxData
  3247  001318                     
  3248                           ;mcc_generated_files/i2c2_master.c: 400:     return I2C2_TX;
  3249  001318  0E03               	movlw	3
  3250  00131A  0012               	return		;funcret
  3251  00131C                     __end_of_I2C2_DO_SEND_ADR_WRITE:
  3252                           	callstack 0
  3253                           
  3254 ;; *************** function _I2C2_DO_SEND_ADR_READ *****************
  3255 ;; Defined at:
  3256 ;;		line 385 in file "mcc_generated_files/i2c2_master.c"
  3257 ;; Parameters:    Size  Location     Type
  3258 ;;		None
  3259 ;; Auto vars:     Size  Location     Type
  3260 ;;		None
  3261 ;; Return value:  Size  Location     Type
  3262 ;;                  1    wreg      enum E22984
  3263 ;; Registers used:
  3264 ;;		wreg, fsr2l, fsr2h, status,2, status,0, pcl, pclath, pclatu, tosl, prodl, prodh, cstack
  3265 ;; Tracked objects:
  3266 ;;		On entry : 0/0
  3267 ;;		On exit  : 0/0
  3268 ;;		Unchanged: 0/0
  3269 ;; Data sizes:     COMRAM   BANK0   BANK1   BANK2   BANK3   BANK4   BANK5   BANK6   BANK7
  3270 ;;      Params:         0       0       0       0       0       0       0       0       0
  3271 ;;      Locals:         0       0       0       0       0       0       0       0       0
  3272 ;;      Temps:          0       0       0       0       0       0       0       0       0
  3273 ;;      Totals:         0       0       0       0       0       0       0       0       0
  3274 ;;Total ram usage:        0 bytes
  3275 ;; Hardware stack levels used: 1
  3276 ;; Hardware stack levels required when called: 4
  3277 ;; This function calls:
  3278 ;;		_I2C2_DO_RX_EMPTY
  3279 ;;		_I2C2_MasterSendTxData
  3280 ;; This function is called by:
  3281 ;;		_I2C2_MasterOperation
  3282 ;;		_I2C2_DO_SEND_RESTART_READ
  3283 ;;		_I2C2_MasterFsm
  3284 ;; This function uses a non-reentrant model
  3285 ;;
  3286                           
  3287                           	psect	text33
  3288  0010FC                     __ptext33:
  3289                           	callstack 0
  3290  0010FC                     _I2C2_DO_SEND_ADR_READ:
  3291                           	callstack 19
  3292  0010FC                     
  3293                           ;mcc_generated_files/i2c2_master.c: 387:     I2C2_Status.addressNackCheck = 2;
  3294  0010FC  5024               	movf	(_I2C2_Status+35)^0,w,c
  3295  0010FE  0BFC               	andlw	-4
  3296  001100  0902               	iorlw	2
  3297  001102  6E24               	movwf	(_I2C2_Status+35)^0,c
  3298  001104                     
  3299                           ;mcc_generated_files/i2c2_master.c: 388:     if(I2C2_Status.data_length == 1)
  3300  001104  0420               	decf	(_I2C2_Status+31)^0,w,c
  3301  001106  1021               	iorwf	(_I2C2_Status+32)^0,w,c
  3302  001108  A4D8               	btfss	status,2,c
  3303  00110A  EF89  F008         	goto	u631
  3304  00110E  EF8B  F008         	goto	u630
  3305  001112                     u631:
  3306  001112  EF8D  F008         	goto	l2289
  3307  001116                     u630:
  3308  001116                     
  3309                           ;mcc_generated_files/i2c2_master.c: 389:     {;mcc_generated_files/i2c2_master.c: 390:  
      +                                 I2C2_DO_RX_EMPTY();
  3310  001116  ECA6  F004         	call	_I2C2_DO_RX_EMPTY	;wreg free
  3311  00111A                     l2289:
  3312                           
  3313                           ;mcc_generated_files/i2c2_master.c: 392:     I2C2_MasterSendTxData((uint8_t) (I2C2_Statu
      +                          s.address << 1 | 1));
  3314  00111A  80D8               	bsf	status,0,c
  3315  00111C  341D               	rlcf	(_I2C2_Status+28)^0,w,c
  3316  00111E  ECBD  F009         	call	_I2C2_MasterSendTxData
  3317  001122                     
  3318                           ;mcc_generated_files/i2c2_master.c: 393:     return I2C2_RX;
  3319  001122  0E04               	movlw	4
  3320  001124  0012               	return		;funcret
  3321  001126                     __end_of_I2C2_DO_SEND_ADR_READ:
  3322                           	callstack 0
  3323                           
  3324 ;; *************** function _I2C2_DO_IDLE *****************
  3325 ;; Defined at:
  3326 ;;		line 378 in file "mcc_generated_files/i2c2_master.c"
  3327 ;; Parameters:    Size  Location     Type
  3328 ;;		None
  3329 ;; Auto vars:     Size  Location     Type
  3330 ;;		None
  3331 ;; Return value:  Size  Location     Type
  3332 ;;                  1    wreg      enum E22984
  3333 ;; Registers used:
  3334 ;;		wreg, status,2
  3335 ;; Tracked objects:
  3336 ;;		On entry : 0/0
  3337 ;;		On exit  : 0/0
  3338 ;;		Unchanged: 0/0
  3339 ;; Data sizes:     COMRAM   BANK0   BANK1   BANK2   BANK3   BANK4   BANK5   BANK6   BANK7
  3340 ;;      Params:         0       0       0       0       0       0       0       0       0
  3341 ;;      Locals:         0       0       0       0       0       0       0       0       0
  3342 ;;      Temps:          0       0       0       0       0       0       0       0       0
  3343 ;;      Totals:         0       0       0       0       0       0       0       0       0
  3344 ;;Total ram usage:        0 bytes
  3345 ;; Hardware stack levels used: 1
  3346 ;; This function calls:
  3347 ;;		Nothing
  3348 ;; This function is called by:
  3349 ;;		_I2C2_DO_RX_NACK_STOP
  3350 ;;		_I2C2_MasterFsm
  3351 ;; This function uses a non-reentrant model
  3352 ;;
  3353                           
  3354                           	psect	text34
  3355  001370                     __ptext34:
  3356                           	callstack 0
  3357  001370                     _I2C2_DO_IDLE:
  3358                           	callstack 24
  3359  001370                     
  3360                           ;mcc_generated_files/i2c2_master.c: 380:     I2C2_Status.busy = 0;
  3361  001370  9424               	bcf	(_I2C2_Status+35)^0,2,c
  3362  001372                     
  3363                           ;mcc_generated_files/i2c2_master.c: 381:     I2C2_Status.error = I2C2_NOERR;
  3364  001372  0E00               	movlw	0
  3365  001374  6E23               	movwf	(_I2C2_Status+34)^0,c
  3366  001376                     
  3367                           ;mcc_generated_files/i2c2_master.c: 382:     return I2C2_RESET;
  3368  001376  0E0F               	movlw	15
  3369  001378  0012               	return		;funcret
  3370  00137A                     __end_of_I2C2_DO_IDLE:
  3371                           	callstack 0
  3372                           
  3373 ;; *************** function _I2C2_DO_TX_ACK *****************
  3374 ;; Defined at:
  3375 ;;		line 538 in file "mcc_generated_files/i2c2_master.c"
  3376 ;; Parameters:    Size  Location     Type
  3377 ;;		None
  3378 ;; Auto vars:     Size  Location     Type
  3379 ;;		None
  3380 ;; Return value:  Size  Location     Type
  3381 ;;                  1    wreg      enum E22984
  3382 ;; Registers used:
  3383 ;;		wreg, cstack
  3384 ;; Tracked objects:
  3385 ;;		On entry : 0/0
  3386 ;;		On exit  : 0/0
  3387 ;;		Unchanged: 0/0
  3388 ;; Data sizes:     COMRAM   BANK0   BANK1   BANK2   BANK3   BANK4   BANK5   BANK6   BANK7
  3389 ;;      Params:         0       0       0       0       0       0       0       0       0
  3390 ;;      Locals:         0       0       0       0       0       0       0       0       0
  3391 ;;      Temps:          0       0       0       0       0       0       0       0       0
  3392 ;;      Totals:         0       0       0       0       0       0       0       0       0
  3393 ;;Total ram usage:        0 bytes
  3394 ;; Hardware stack levels used: 1
  3395 ;; Hardware stack levels required when called: 1
  3396 ;; This function calls:
  3397 ;;		_I2C2_MasterSendAck
  3398 ;; This function is called by:
  3399 ;;		_I2C2_MasterFsm
  3400 ;; This function uses a non-reentrant model
  3401 ;;
  3402                           
  3403                           	psect	text35
  3404  0013B8                     __ptext35:
  3405                           	callstack 0
  3406  0013B8                     _I2C2_DO_TX_ACK:
  3407                           	callstack 24
  3408  0013B8                     
  3409                           ;mcc_generated_files/i2c2_master.c: 540:     I2C2_MasterSendAck();
  3410  0013B8  ECF0  F009         	call	_I2C2_MasterSendAck	;wreg free
  3411  0013BC                     
  3412                           ;mcc_generated_files/i2c2_master.c: 541:     return I2C2_TX;
  3413  0013BC  0E03               	movlw	3
  3414  0013BE  0012               	return		;funcret
  3415  0013C0                     __end_of_I2C2_DO_TX_ACK:
  3416                           	callstack 0
  3417                           
  3418 ;; *************** function _I2C2_MasterIsTxBufEmpty *****************
  3419 ;; Defined at:
  3420 ;;		line 736 in file "mcc_generated_files/i2c2_master.c"
  3421 ;; Parameters:    Size  Location     Type
  3422 ;;		None
  3423 ;; Auto vars:     Size  Location     Type
  3424 ;;		None
  3425 ;; Return value:  Size  Location     Type
  3426 ;;                  1    wreg      _Bool 
  3427 ;; Registers used:
  3428 ;;		wreg
  3429 ;; Tracked objects:
  3430 ;;		On entry : 0/0
  3431 ;;		On exit  : 0/0
  3432 ;;		Unchanged: 0/0
  3433 ;; Data sizes:     COMRAM   BANK0   BANK1   BANK2   BANK3   BANK4   BANK5   BANK6   BANK7
  3434 ;;      Params:         0       0       0       0       0       0       0       0       0
  3435 ;;      Locals:         0       0       0       0       0       0       0       0       0
  3436 ;;      Temps:          0       0       0       0       0       0       0       0       0
  3437 ;;      Totals:         0       0       0       0       0       0       0       0       0
  3438 ;;Total ram usage:        0 bytes
  3439 ;; Hardware stack levels used: 1
  3440 ;; This function calls:
  3441 ;;		Nothing
  3442 ;; This function is called by:
  3443 ;;		_I2C2_DO_TX
  3444 ;; This function uses a non-reentrant model
  3445 ;;
  3446                           
  3447                           	psect	text36
  3448  001284                     __ptext36:
  3449                           	callstack 0
  3450  001284                     _I2C2_MasterIsTxBufEmpty:
  3451                           	callstack 24
  3452  001284                     
  3453                           ;mcc_generated_files/i2c2_master.c: 738:     return I2C2STAT1bits.TXBE;
  3454  001284  013D               	movlb	61	; () banked
  3455  001286  BB62               	btfsc	98,5,b	;volatile
  3456  001288  EF48  F009         	goto	u651
  3457  00128C  EF4B  F009         	goto	u650
  3458  001290                     u651:
  3459  001290  0E01               	movlw	1
  3460  001292  EF4C  F009         	goto	u656
  3461  001296                     u650:
  3462  001296  0E00               	movlw	0
  3463  001298                     u656:
  3464  001298                     
  3465                           ; BSR set to: 61
  3466  001298  0012               	return		;funcret
  3467  00129A                     __end_of_I2C2_MasterIsTxBufEmpty:
  3468                           	callstack 0
  3469                           
  3470 ;; *************** function _I2C2_MasterIsNack *****************
  3471 ;; Defined at:
  3472 ;;		line 709 in file "mcc_generated_files/i2c2_master.c"
  3473 ;; Parameters:    Size  Location     Type
  3474 ;;		None
  3475 ;; Auto vars:     Size  Location     Type
  3476 ;;		None
  3477 ;; Return value:  Size  Location     Type
  3478 ;;                  1    wreg      _Bool 
  3479 ;; Registers used:
  3480 ;;		wreg
  3481 ;; Tracked objects:
  3482 ;;		On entry : 0/0
  3483 ;;		On exit  : 0/0
  3484 ;;		Unchanged: 0/0
  3485 ;; Data sizes:     COMRAM   BANK0   BANK1   BANK2   BANK3   BANK4   BANK5   BANK6   BANK7
  3486 ;;      Params:         0       0       0       0       0       0       0       0       0
  3487 ;;      Locals:         0       0       0       0       0       0       0       0       0
  3488 ;;      Temps:          0       0       0       0       0       0       0       0       0
  3489 ;;      Totals:         0       0       0       0       0       0       0       0       0
  3490 ;;Total ram usage:        0 bytes
  3491 ;; Hardware stack levels used: 1
  3492 ;; This function calls:
  3493 ;;		Nothing
  3494 ;; This function is called by:
  3495 ;;		_I2C2_MasterFsm
  3496 ;;		_I2C2_DO_TX
  3497 ;; This function uses a non-reentrant model
  3498 ;;
  3499                           
  3500                           	psect	text37
  3501  00129A                     __ptext37:
  3502                           	callstack 0
  3503  00129A                     _I2C2_MasterIsNack:
  3504                           	callstack 25
  3505  00129A                     
  3506                           ;mcc_generated_files/i2c2_master.c: 711:     return I2C2CON1bits.ACKSTAT;
  3507  00129A  013D               	movlb	61	; () banked
  3508  00129C  BB5E               	btfsc	94,5,b	;volatile
  3509  00129E  EF53  F009         	goto	u641
  3510  0012A2  EF56  F009         	goto	u640
  3511  0012A6                     u641:
  3512  0012A6  0E01               	movlw	1
  3513  0012A8  EF57  F009         	goto	u646
  3514  0012AC                     u640:
  3515  0012AC  0E00               	movlw	0
  3516  0012AE                     u646:
  3517  0012AE                     
  3518                           ; BSR set to: 61
  3519  0012AE  0012               	return		;funcret
  3520  0012B0                     __end_of_I2C2_MasterIsNack:
  3521                           	callstack 0
  3522                           
  3523 ;; *************** function _I2C2_MasterGetCounter *****************
  3524 ;; Defined at:
  3525 ;;		line 671 in file "mcc_generated_files/i2c2_master.c"
  3526 ;; Parameters:    Size  Location     Type
  3527 ;;		None
  3528 ;; Auto vars:     Size  Location     Type
  3529 ;;		None
  3530 ;; Return value:  Size  Location     Type
  3531 ;;                  1    wreg      unsigned char 
  3532 ;; Registers used:
  3533 ;;		wreg, status,2
  3534 ;; Tracked objects:
  3535 ;;		On entry : 0/0
  3536 ;;		On exit  : 0/0
  3537 ;;		Unchanged: 0/0
  3538 ;; Data sizes:     COMRAM   BANK0   BANK1   BANK2   BANK3   BANK4   BANK5   BANK6   BANK7
  3539 ;;      Params:         0       0       0       0       0       0       0       0       0
  3540 ;;      Locals:         0       0       0       0       0       0       0       0       0
  3541 ;;      Temps:          0       0       0       0       0       0       0       0       0
  3542 ;;      Totals:         0       0       0       0       0       0       0       0       0
  3543 ;;Total ram usage:        0 bytes
  3544 ;; Hardware stack levels used: 1
  3545 ;; This function calls:
  3546 ;;		Nothing
  3547 ;; This function is called by:
  3548 ;;		_I2C2_DO_SEND_STOP
  3549 ;; This function uses a non-reentrant model
  3550 ;;
  3551                           
  3552                           	psect	text38
  3553  0013CE                     __ptext38:
  3554                           	callstack 0
  3555  0013CE                     _I2C2_MasterGetCounter:
  3556                           	callstack 24
  3557  0013CE                     
  3558                           ;mcc_generated_files/i2c2_master.c: 673:     return I2C2CNT;
  3559  0013CE  013D               	movlb	61	; () banked
  3560  0013D0  5156               	movf	86,w,b	;volatile
  3561  0013D2                     
  3562                           ; BSR set to: 61
  3563  0013D2  0012               	return		;funcret
  3564  0013D4                     __end_of_I2C2_MasterGetCounter:
  3565                           	callstack 0
  3566                           
  3567 ;; *************** function _I2C2_MasterStop *****************
  3568 ;; Defined at:
  3569 ;;		line 703 in file "mcc_generated_files/i2c2_master.c"
  3570 ;; Parameters:    Size  Location     Type
  3571 ;;		None
  3572 ;; Auto vars:     Size  Location     Type
  3573 ;;		None
  3574 ;; Return value:  Size  Location     Type
  3575 ;;                  1    wreg      void 
  3576 ;; Registers used:
  3577 ;;		None
  3578 ;; Tracked objects:
  3579 ;;		On entry : 0/0
  3580 ;;		On exit  : 0/0
  3581 ;;		Unchanged: 0/0
  3582 ;; Data sizes:     COMRAM   BANK0   BANK1   BANK2   BANK3   BANK4   BANK5   BANK6   BANK7
  3583 ;;      Params:         0       0       0       0       0       0       0       0       0
  3584 ;;      Locals:         0       0       0       0       0       0       0       0       0
  3585 ;;      Temps:          0       0       0       0       0       0       0       0       0
  3586 ;;      Totals:         0       0       0       0       0       0       0       0       0
  3587 ;;Total ram usage:        0 bytes
  3588 ;; Hardware stack levels used: 1
  3589 ;; This function calls:
  3590 ;;		Nothing
  3591 ;; This function is called by:
  3592 ;;		_I2C2_DO_SEND_STOP
  3593 ;;		_I2C2_DO_RX_NACK_STOP
  3594 ;; This function uses a non-reentrant model
  3595 ;;
  3596                           
  3597                           	psect	text39
  3598  0013D4                     __ptext39:
  3599                           	callstack 0
  3600  0013D4                     _I2C2_MasterStop:
  3601                           	callstack 24
  3602  0013D4                     
  3603                           ;mcc_generated_files/i2c2_master.c: 706:     I2C2CON0bits.S = 0;
  3604  0013D4  013D               	movlb	61	; () banked
  3605  0013D6  9B5D               	bcf	93,5,b	;volatile
  3606  0013D8                     
  3607                           ; BSR set to: 61
  3608  0013D8  0012               	return		;funcret
  3609  0013DA                     __end_of_I2C2_MasterStop:
  3610                           	callstack 0
  3611                           
  3612 ;; *************** function _I2C2_MasterSendNack *****************
  3613 ;; Defined at:
  3614 ;;		line 719 in file "mcc_generated_files/i2c2_master.c"
  3615 ;; Parameters:    Size  Location     Type
  3616 ;;		None
  3617 ;; Auto vars:     Size  Location     Type
  3618 ;;		None
  3619 ;; Return value:  Size  Location     Type
  3620 ;;                  1    wreg      void 
  3621 ;; Registers used:
  3622 ;;		None
  3623 ;; Tracked objects:
  3624 ;;		On entry : 0/0
  3625 ;;		On exit  : 0/0
  3626 ;;		Unchanged: 0/0
  3627 ;; Data sizes:     COMRAM   BANK0   BANK1   BANK2   BANK3   BANK4   BANK5   BANK6   BANK7
  3628 ;;      Params:         0       0       0       0       0       0       0       0       0
  3629 ;;      Locals:         0       0       0       0       0       0       0       0       0
  3630 ;;      Temps:          0       0       0       0       0       0       0       0       0
  3631 ;;      Totals:         0       0       0       0       0       0       0       0       0
  3632 ;;Total ram usage:        0 bytes
  3633 ;; Hardware stack levels used: 1
  3634 ;; This function calls:
  3635 ;;		Nothing
  3636 ;; This function is called by:
  3637 ;;		_I2C2_DO_RX_NACK_STOP
  3638 ;;		_I2C2_DO_RX_NACK_RESTART
  3639 ;; This function uses a non-reentrant model
  3640 ;;
  3641                           
  3642                           	psect	text40
  3643  0013DA                     __ptext40:
  3644                           	callstack 0
  3645  0013DA                     _I2C2_MasterSendNack:
  3646                           	callstack 24
  3647  0013DA                     
  3648                           ;mcc_generated_files/i2c2_master.c: 721:     I2C2CON1bits.ACKDT = 1;
  3649  0013DA  013D               	movlb	61	; () banked
  3650  0013DC  8D5E               	bsf	94,6,b	;volatile
  3651  0013DE                     
  3652                           ; BSR set to: 61
  3653  0013DE  0012               	return		;funcret
  3654  0013E0                     __end_of_I2C2_MasterSendNack:
  3655                           	callstack 0
  3656                           
  3657 ;; *************** function _I2C2_MasterSendAck *****************
  3658 ;; Defined at:
  3659 ;;		line 714 in file "mcc_generated_files/i2c2_master.c"
  3660 ;; Parameters:    Size  Location     Type
  3661 ;;		None
  3662 ;; Auto vars:     Size  Location     Type
  3663 ;;		None
  3664 ;; Return value:  Size  Location     Type
  3665 ;;                  1    wreg      void 
  3666 ;; Registers used:
  3667 ;;		None
  3668 ;; Tracked objects:
  3669 ;;		On entry : 0/0
  3670 ;;		On exit  : 0/0
  3671 ;;		Unchanged: 0/0
  3672 ;; Data sizes:     COMRAM   BANK0   BANK1   BANK2   BANK3   BANK4   BANK5   BANK6   BANK7
  3673 ;;      Params:         0       0       0       0       0       0       0       0       0
  3674 ;;      Locals:         0       0       0       0       0       0       0       0       0
  3675 ;;      Temps:          0       0       0       0       0       0       0       0       0
  3676 ;;      Totals:         0       0       0       0       0       0       0       0       0
  3677 ;;Total ram usage:        0 bytes
  3678 ;; Hardware stack levels used: 1
  3679 ;; This function calls:
  3680 ;;		Nothing
  3681 ;; This function is called by:
  3682 ;;		_I2C2_DO_RX_ACK
  3683 ;;		_I2C2_DO_TX_ACK
  3684 ;; This function uses a non-reentrant model
  3685 ;;
  3686                           
  3687                           	psect	text41
  3688  0013E0                     __ptext41:
  3689                           	callstack 0
  3690  0013E0                     _I2C2_MasterSendAck:
  3691                           	callstack 24
  3692  0013E0                     
  3693                           ;mcc_generated_files/i2c2_master.c: 716:     I2C2CON1bits.ACKDT = 0;
  3694  0013E0  013D               	movlb	61	; () banked
  3695  0013E2  9D5E               	bcf	94,6,b	;volatile
  3696  0013E4                     
  3697                           ; BSR set to: 61
  3698  0013E4  0012               	return		;funcret
  3699  0013E6                     __end_of_I2C2_MasterSendAck:
  3700                           	callstack 0
  3701                           
  3702 ;; *************** function _I2C2_MasterIsRxBufFull *****************
  3703 ;; Defined at:
  3704 ;;		line 731 in file "mcc_generated_files/i2c2_master.c"
  3705 ;; Parameters:    Size  Location     Type
  3706 ;;		None
  3707 ;; Auto vars:     Size  Location     Type
  3708 ;;		None
  3709 ;; Return value:  Size  Location     Type
  3710 ;;                  1    wreg      _Bool 
  3711 ;; Registers used:
  3712 ;;		wreg
  3713 ;; Tracked objects:
  3714 ;;		On entry : 0/0
  3715 ;;		On exit  : 0/0
  3716 ;;		Unchanged: 0/0
  3717 ;; Data sizes:     COMRAM   BANK0   BANK1   BANK2   BANK3   BANK4   BANK5   BANK6   BANK7
  3718 ;;      Params:         0       0       0       0       0       0       0       0       0
  3719 ;;      Locals:         0       0       0       0       0       0       0       0       0
  3720 ;;      Temps:          0       0       0       0       0       0       0       0       0
  3721 ;;      Totals:         0       0       0       0       0       0       0       0       0
  3722 ;;Total ram usage:        0 bytes
  3723 ;; Hardware stack levels used: 1
  3724 ;; This function calls:
  3725 ;;		Nothing
  3726 ;; This function is called by:
  3727 ;;		_I2C2_DO_RX
  3728 ;; This function uses a non-reentrant model
  3729 ;;
  3730                           
  3731                           	psect	text42
  3732  0012B0                     __ptext42:
  3733                           	callstack 0
  3734  0012B0                     _I2C2_MasterIsRxBufFull:
  3735                           	callstack 24
  3736  0012B0                     
  3737                           ;mcc_generated_files/i2c2_master.c: 733:     return I2C2STAT1bits.RXBF;
  3738  0012B0  013D               	movlb	61	; () banked
  3739  0012B2  B162               	btfsc	98,0,b	;volatile
  3740  0012B4  EF5E  F009         	goto	u121
  3741  0012B8  EF61  F009         	goto	u120
  3742  0012BC                     u121:
  3743  0012BC  0E01               	movlw	1
  3744  0012BE  EF62  F009         	goto	u126
  3745  0012C2                     u120:
  3746  0012C2  0E00               	movlw	0
  3747  0012C4                     u126:
  3748  0012C4                     
  3749                           ; BSR set to: 61
  3750  0012C4  0012               	return		;funcret
  3751  0012C6                     __end_of_I2C2_MasterIsRxBufFull:
  3752                           	callstack 0
  3753                           
  3754 ;; *************** function _I2C2_MasterGetRxData *****************
  3755 ;; Defined at:
  3756 ;;		line 661 in file "mcc_generated_files/i2c2_master.c"
  3757 ;; Parameters:    Size  Location     Type
  3758 ;;		None
  3759 ;; Auto vars:     Size  Location     Type
  3760 ;;		None
  3761 ;; Return value:  Size  Location     Type
  3762 ;;                  1    wreg      unsigned char 
  3763 ;; Registers used:
  3764 ;;		wreg, status,2
  3765 ;; Tracked objects:
  3766 ;;		On entry : 0/0
  3767 ;;		On exit  : 0/0
  3768 ;;		Unchanged: 0/0
  3769 ;; Data sizes:     COMRAM   BANK0   BANK1   BANK2   BANK3   BANK4   BANK5   BANK6   BANK7
  3770 ;;      Params:         0       0       0       0       0       0       0       0       0
  3771 ;;      Locals:         0       0       0       0       0       0       0       0       0
  3772 ;;      Temps:          0       0       0       0       0       0       0       0       0
  3773 ;;      Totals:         0       0       0       0       0       0       0       0       0
  3774 ;;Total ram usage:        0 bytes
  3775 ;; Hardware stack levels used: 1
  3776 ;; This function calls:
  3777 ;;		Nothing
  3778 ;; This function is called by:
  3779 ;;		_I2C2_DO_RX
  3780 ;; This function uses a non-reentrant model
  3781 ;;
  3782                           
  3783                           	psect	text43
  3784  0013E6                     __ptext43:
  3785                           	callstack 0
  3786  0013E6                     _I2C2_MasterGetRxData:
  3787                           	callstack 24
  3788  0013E6                     
  3789                           ;mcc_generated_files/i2c2_master.c: 663:     return I2C2RXB;
  3790  0013E6  013D               	movlb	61	; () banked
  3791  0013E8  5154               	movf	84,w,b	;volatile
  3792  0013EA                     
  3793                           ; BSR set to: 61
  3794  0013EA  0012               	return		;funcret
  3795  0013EC                     __end_of_I2C2_MasterGetRxData:
  3796                           	callstack 0
  3797                           
  3798 ;; *************** function _I2C2_MasterSendTxData *****************
  3799 ;; Defined at:
  3800 ;;		line 666 in file "mcc_generated_files/i2c2_master.c"
  3801 ;; Parameters:    Size  Location     Type
  3802 ;;  data            1    wreg     unsigned char 
  3803 ;; Auto vars:     Size  Location     Type
  3804 ;;  data            1    0[COMRAM] unsigned char 
  3805 ;; Return value:  Size  Location     Type
  3806 ;;                  1    wreg      void 
  3807 ;; Registers used:
  3808 ;;		wreg
  3809 ;; Tracked objects:
  3810 ;;		On entry : 0/0
  3811 ;;		On exit  : 0/0
  3812 ;;		Unchanged: 0/0
  3813 ;; Data sizes:     COMRAM   BANK0   BANK1   BANK2   BANK3   BANK4   BANK5   BANK6   BANK7
  3814 ;;      Params:         0       0       0       0       0       0       0       0       0
  3815 ;;      Locals:         1       0       0       0       0       0       0       0       0
  3816 ;;      Temps:          0       0       0       0       0       0       0       0       0
  3817 ;;      Totals:         1       0       0       0       0       0       0       0       0
  3818 ;;Total ram usage:        1 bytes
  3819 ;; Hardware stack levels used: 1
  3820 ;; This function calls:
  3821 ;;		Nothing
  3822 ;; This function is called by:
  3823 ;;		_I2C2_DO_SEND_ADR_READ
  3824 ;;		_I2C2_DO_SEND_ADR_WRITE
  3825 ;;		_I2C2_DO_TX
  3826 ;;		_I2C2_DO_SEND_STOP
  3827 ;; This function uses a non-reentrant model
  3828 ;;
  3829                           
  3830                           	psect	text44
  3831  00137A                     __ptext44:
  3832                           	callstack 0
  3833  00137A                     _I2C2_MasterSendTxData:
  3834                           	callstack 24
  3835                           
  3836                           ; BSR set to: 61
  3837                           ;incstack = 0
  3838                           ;I2C2_MasterSendTxData@data stored from wreg
  3839  00137A  6E2D               	movwf	I2C2_MasterSendTxData@data^0,c
  3840  00137C                     
  3841                           ;mcc_generated_files/i2c2_master.c: 666: static __attribute__((inline)) void I2C2_Master
      +                          SendTxData(uint8_t data);mcc_generated_files/i2c2_master.c: 667: {;mcc_generated_files/i
      +                          2c2_master.c: 668:     I2C2TXB = data;
  3842  00137C  0060  F0B7  FD55   	movff	I2C2_MasterSendTxData@data,15701	;volatile
  3843  001382  0012               	return		;funcret
  3844  001384                     __end_of_I2C2_MasterSendTxData:
  3845                           	callstack 0
  3846                           
  3847 ;; *************** function _I2C2_MasterSetCounter *****************
  3848 ;; Defined at:
  3849 ;;		line 676 in file "mcc_generated_files/i2c2_master.c"
  3850 ;; Parameters:    Size  Location     Type
  3851 ;;  counter         1    wreg     unsigned char 
  3852 ;; Auto vars:     Size  Location     Type
  3853 ;;  counter         1    0[COMRAM] unsigned char 
  3854 ;; Return value:  Size  Location     Type
  3855 ;;                  1    wreg      void 
  3856 ;; Registers used:
  3857 ;;		wreg
  3858 ;; Tracked objects:
  3859 ;;		On entry : 0/0
  3860 ;;		On exit  : 0/0
  3861 ;;		Unchanged: 0/0
  3862 ;; Data sizes:     COMRAM   BANK0   BANK1   BANK2   BANK3   BANK4   BANK5   BANK6   BANK7
  3863 ;;      Params:         0       0       0       0       0       0       0       0       0
  3864 ;;      Locals:         1       0       0       0       0       0       0       0       0
  3865 ;;      Temps:          0       0       0       0       0       0       0       0       0
  3866 ;;      Totals:         1       0       0       0       0       0       0       0       0
  3867 ;;Total ram usage:        1 bytes
  3868 ;; Hardware stack levels used: 1
  3869 ;; This function calls:
  3870 ;;		Nothing
  3871 ;; This function is called by:
  3872 ;;		_I2C2_MasterOperation
  3873 ;;		_I2C2_DO_TX_EMPTY
  3874 ;;		_I2C2_DO_RX_EMPTY
  3875 ;;		_I2C2_DO_SEND_RESTART_READ
  3876 ;;		_I2C2_DO_SEND_STOP
  3877 ;; This function uses a non-reentrant model
  3878 ;;
  3879                           
  3880                           	psect	text45
  3881  001384                     __ptext45:
  3882                           	callstack 0
  3883  001384                     _I2C2_MasterSetCounter:
  3884                           	callstack 24
  3885                           
  3886                           ;incstack = 0
  3887                           ;I2C2_MasterSetCounter@counter stored from wreg
  3888  001384  6E2D               	movwf	I2C2_MasterSetCounter@counter^0,c
  3889  001386                     
  3890                           ;mcc_generated_files/i2c2_master.c: 676: static __attribute__((inline)) void I2C2_Master
      +                          SetCounter(uint8_t counter);mcc_generated_files/i2c2_master.c: 677: {;mcc_generated_file
      +                          s/i2c2_master.c: 678:     I2C2CNT = counter;
  3891  001386  0060  F0B7  FD56   	movff	I2C2_MasterSetCounter@counter,15702	;volatile
  3892  00138C  0012               	return		;funcret
  3893  00138E                     __end_of_I2C2_MasterSetCounter:
  3894                           	callstack 0
  3895                           
  3896 ;; *************** function _I2C2_MasterEnableRestart *****************
  3897 ;; Defined at:
  3898 ;;		line 691 in file "mcc_generated_files/i2c2_master.c"
  3899 ;; Parameters:    Size  Location     Type
  3900 ;;		None
  3901 ;; Auto vars:     Size  Location     Type
  3902 ;;		None
  3903 ;; Return value:  Size  Location     Type
  3904 ;;                  1    wreg      void 
  3905 ;; Registers used:
  3906 ;;		None
  3907 ;; Tracked objects:
  3908 ;;		On entry : 0/0
  3909 ;;		On exit  : 0/0
  3910 ;;		Unchanged: 0/0
  3911 ;; Data sizes:     COMRAM   BANK0   BANK1   BANK2   BANK3   BANK4   BANK5   BANK6   BANK7
  3912 ;;      Params:         0       0       0       0       0       0       0       0       0
  3913 ;;      Locals:         0       0       0       0       0       0       0       0       0
  3914 ;;      Temps:          0       0       0       0       0       0       0       0       0
  3915 ;;      Totals:         0       0       0       0       0       0       0       0       0
  3916 ;;Total ram usage:        0 bytes
  3917 ;; Hardware stack levels used: 1
  3918 ;; This function calls:
  3919 ;;		Nothing
  3920 ;; This function is called by:
  3921 ;;		_I2C2_DO_TX_EMPTY
  3922 ;;		_I2C2_DO_RX_EMPTY
  3923 ;; This function uses a non-reentrant model
  3924 ;;
  3925                           
  3926                           	psect	text46
  3927  0013EC                     __ptext46:
  3928                           	callstack 0
  3929  0013EC                     _I2C2_MasterEnableRestart:
  3930                           	callstack 24
  3931  0013EC                     
  3932                           ;mcc_generated_files/i2c2_master.c: 694:     I2C2CON0bits.RSEN = 1;
  3933  0013EC  013D               	movlb	61	; () banked
  3934  0013EE  8D5D               	bsf	93,6,b	;volatile
  3935  0013F0                     
  3936                           ; BSR set to: 61
  3937  0013F0  0012               	return		;funcret
  3938  0013F2                     __end_of_I2C2_MasterEnableRestart:
  3939                           	callstack 0
  3940                           
  3941 ;; *************** function _I2C2_MasterDisableRestart *****************
  3942 ;; Defined at:
  3943 ;;		line 697 in file "mcc_generated_files/i2c2_master.c"
  3944 ;; Parameters:    Size  Location     Type
  3945 ;;		None
  3946 ;; Auto vars:     Size  Location     Type
  3947 ;;		None
  3948 ;; Return value:  Size  Location     Type
  3949 ;;                  1    wreg      void 
  3950 ;; Registers used:
  3951 ;;		None
  3952 ;; Tracked objects:
  3953 ;;		On entry : 0/0
  3954 ;;		On exit  : 0/0
  3955 ;;		Unchanged: 0/0
  3956 ;; Data sizes:     COMRAM   BANK0   BANK1   BANK2   BANK3   BANK4   BANK5   BANK6   BANK7
  3957 ;;      Params:         0       0       0       0       0       0       0       0       0
  3958 ;;      Locals:         0       0       0       0       0       0       0       0       0
  3959 ;;      Temps:          0       0       0       0       0       0       0       0       0
  3960 ;;      Totals:         0       0       0       0       0       0       0       0       0
  3961 ;;Total ram usage:        0 bytes
  3962 ;; Hardware stack levels used: 1
  3963 ;; This function calls:
  3964 ;;		Nothing
  3965 ;; This function is called by:
  3966 ;;		_I2C2_DO_TX_EMPTY
  3967 ;;		_I2C2_DO_RX_EMPTY
  3968 ;; This function uses a non-reentrant model
  3969 ;;
  3970                           
  3971                           	psect	text47
  3972  0013F2                     __ptext47:
  3973                           	callstack 0
  3974  0013F2                     _I2C2_MasterDisableRestart:
  3975                           	callstack 24
  3976  0013F2                     
  3977                           ;mcc_generated_files/i2c2_master.c: 700:     I2C2CON0bits.RSEN = 0;
  3978  0013F2  013D               	movlb	61	; () banked
  3979  0013F4  9D5D               	bcf	93,6,b	;volatile
  3980  0013F6                     
  3981                           ; BSR set to: 61
  3982  0013F6  0012               	return		;funcret
  3983  0013F8                     __end_of_I2C2_MasterDisableRestart:
  3984                           	callstack 0
  3985                           
  3986 ;; *************** function _I2C2_MasterResetBus *****************
  3987 ;; Defined at:
  3988 ;;		line 681 in file "mcc_generated_files/i2c2_master.c"
  3989 ;; Parameters:    Size  Location     Type
  3990 ;;		None
  3991 ;; Auto vars:     Size  Location     Type
  3992 ;;		None
  3993 ;; Return value:  Size  Location     Type
  3994 ;;                  1    wreg      void 
  3995 ;; Registers used:
  3996 ;;		None
  3997 ;; Tracked objects:
  3998 ;;		On entry : 0/0
  3999 ;;		On exit  : 0/0
  4000 ;;		Unchanged: 0/0
  4001 ;; Data sizes:     COMRAM   BANK0   BANK1   BANK2   BANK3   BANK4   BANK5   BANK6   BANK7
  4002 ;;      Params:         0       0       0       0       0       0       0       0       0
  4003 ;;      Locals:         0       0       0       0       0       0       0       0       0
  4004 ;;      Temps:          0       0       0       0       0       0       0       0       0
  4005 ;;      Totals:         0       0       0       0       0       0       0       0       0
  4006 ;;Total ram usage:        0 bytes
  4007 ;; Hardware stack levels used: 1
  4008 ;; This function calls:
  4009 ;;		Nothing
  4010 ;; This function is called by:
  4011 ;;		_I2C2_DO_RESET
  4012 ;;		_I2C2_DO_BUS_ERROR
  4013 ;; This function uses a non-reentrant model
  4014 ;;
  4015                           
  4016                           	psect	text48
  4017  00138E                     __ptext48:
  4018                           	callstack 0
  4019  00138E                     _I2C2_MasterResetBus:
  4020                           	callstack 24
  4021  00138E                     
  4022                           ;mcc_generated_files/i2c2_master.c: 684:     I2C2CON0bits.EN = 0;
  4023  00138E  013D               	movlb	61	; () banked
  4024  001390  9F5D               	bcf	93,7,b	;volatile
  4025                           
  4026                           ;mcc_generated_files/i2c2_master.c: 686:     I2C2STAT1bits.CLRBF = 1;
  4027  001392  8562               	bsf	98,2,b	;volatile
  4028                           
  4029                           ;mcc_generated_files/i2c2_master.c: 688:     I2C2CON0bits.EN = 1;
  4030  001394  8F5D               	bsf	93,7,b	;volatile
  4031  001396                     
  4032                           ; BSR set to: 61
  4033  001396  0012               	return		;funcret
  4034  001398                     __end_of_I2C2_MasterResetBus:
  4035                           	callstack 0
  4036                           
  4037 ;; *************** function _I2C2_CallbackReturnReset *****************
  4038 ;; Defined at:
  4039 ;;		line 614 in file "mcc_generated_files/i2c2_master.c"
  4040 ;; Parameters:    Size  Location     Type
  4041 ;;  funPtr          2    9[COMRAM] PTR void 
  4042 ;;		 -> I2C2_ReadDataBlock@bufferBlock(4), I2C2_Write2ByteRegister@data(2), I2C2_Write1ByteRegister@data(1), I2C2_Read2B
      +yteRegister@returnValue(2), 
  4043 ;;		 -> NULL(0), I2C2_Read1ByteRegister@returnValue(1), 
  4044 ;; Auto vars:     Size  Location     Type
  4045 ;;		None
  4046 ;; Return value:  Size  Location     Type
  4047 ;;                  1    wreg      enum E360
  4048 ;; Registers used:
  4049 ;;		wreg
  4050 ;; Tracked objects:
  4051 ;;		On entry : 0/0
  4052 ;;		On exit  : 0/0
  4053 ;;		Unchanged: 0/0
  4054 ;; Data sizes:     COMRAM   BANK0   BANK1   BANK2   BANK3   BANK4   BANK5   BANK6   BANK7
  4055 ;;      Params:         2       0       0       0       0       0       0       0       0
  4056 ;;      Locals:         0       0       0       0       0       0       0       0       0
  4057 ;;      Temps:          0       0       0       0       0       0       0       0       0
  4058 ;;      Totals:         2       0       0       0       0       0       0       0       0
  4059 ;;Total ram usage:        2 bytes
  4060 ;; Hardware stack levels used: 1
  4061 ;; This function calls:
  4062 ;;		Nothing
  4063 ;; This function is called by:
  4064 ;;		_I2C2_Open
  4065 ;;		_I2C2_DO_RX_EMPTY
  4066 ;;		_I2C2_DO_TX_EMPTY
  4067 ;;		_I2C2_DO_TX
  4068 ;;		_I2C2_DO_ADDRESS_NACK
  4069 ;;		_I2C2_DO_BUS_COLLISION
  4070 ;; This function uses a non-reentrant model
  4071 ;;
  4072                           
  4073                           	psect	text49
  4074  001412                     __ptext49:
  4075                           	callstack 0
  4076  001412                     _I2C2_CallbackReturnReset:
  4077                           	callstack 24
  4078  001412                     
  4079                           ;mcc_generated_files/i2c2_master.c: 614: i2c2_operations_t I2C2_CallbackReturnReset(void
      +                           *funPtr);mcc_generated_files/i2c2_master.c: 615: {;mcc_generated_files/i2c2_master.c: 6
      +                          16:     return I2C2_RESET_LINK;
  4080  001412  0E05               	movlw	5
  4081  001414  0012               	return		;funcret
  4082  001416                     __end_of_I2C2_CallbackReturnReset:
  4083                           	callstack 0
  4084                           
  4085 ;; *************** function _I2C2_CallbackReturnStop *****************
  4086 ;; Defined at:
  4087 ;;		line 609 in file "mcc_generated_files/i2c2_master.c"
  4088 ;; Parameters:    Size  Location     Type
  4089 ;;  funPtr          2    9[COMRAM] PTR void 
  4090 ;;		 -> I2C2_ReadDataBlock@bufferBlock(4), I2C2_Write2ByteRegister@data(2), I2C2_Write1ByteRegister@data(1), I2C2_Read2B
      +yteRegister@returnValue(2), 
  4091 ;;		 -> NULL(0), I2C2_Read1ByteRegister@returnValue(1), 
  4092 ;; Auto vars:     Size  Location     Type
  4093 ;;		None
  4094 ;; Return value:  Size  Location     Type
  4095 ;;                  1    wreg      enum E360
  4096 ;; Registers used:
  4097 ;;		wreg
  4098 ;; Tracked objects:
  4099 ;;		On entry : 0/0
  4100 ;;		On exit  : 0/0
  4101 ;;		Unchanged: 0/0
  4102 ;; Data sizes:     COMRAM   BANK0   BANK1   BANK2   BANK3   BANK4   BANK5   BANK6   BANK7
  4103 ;;      Params:         2       0       0       0       0       0       0       0       0
  4104 ;;      Locals:         0       0       0       0       0       0       0       0       0
  4105 ;;      Temps:          0       0       0       0       0       0       0       0       0
  4106 ;;      Totals:         2       0       0       0       0       0       0       0       0
  4107 ;;Total ram usage:        2 bytes
  4108 ;; Hardware stack levels used: 1
  4109 ;; This function calls:
  4110 ;;		Nothing
  4111 ;; This function is called by:
  4112 ;;		_I2C2_Open
  4113 ;;		_I2C2_SetCallback
  4114 ;;		_I2C2_DO_RX_EMPTY
  4115 ;;		_I2C2_DO_TX_EMPTY
  4116 ;;		_I2C2_DO_TX
  4117 ;;		_I2C2_DO_ADDRESS_NACK
  4118 ;;		_I2C2_DO_BUS_COLLISION
  4119 ;; This function uses a non-reentrant model
  4120 ;;
  4121                           
  4122                           	psect	text50
  4123  001416                     __ptext50:
  4124                           	callstack 0
  4125  001416                     _I2C2_CallbackReturnStop:
  4126                           	callstack 24
  4127  001416                     
  4128                           ;mcc_generated_files/i2c2_master.c: 609: i2c2_operations_t I2C2_CallbackReturnStop(void 
      +                          *funPtr);mcc_generated_files/i2c2_master.c: 610: {;mcc_generated_files/i2c2_master.c: 61
      +                          1:     return I2C2_STOP;
  4129  001416  0E01               	movlw	1
  4130  001418  0012               	return		;funcret
  4131  00141A                     __end_of_I2C2_CallbackReturnStop:
  4132                           	callstack 0
  4133                           
  4134 ;; *************** function _rdBlkRegCompleteHandler *****************
  4135 ;; Defined at:
  4136 ;;		line 170 in file "mcc_generated_files/examples/i2c2_master_example.c"
  4137 ;; Parameters:    Size  Location     Type
  4138 ;;  ptr             2    9[COMRAM] PTR void 
  4139 ;;		 -> I2C2_ReadDataBlock@bufferBlock(4), I2C2_Write2ByteRegister@data(2), I2C2_Write1ByteRegister@data(1), I2C2_Read2B
      +yteRegister@returnValue(2), 
  4140 ;;		 -> NULL(0), I2C2_Read1ByteRegister@returnValue(1), 
  4141 ;; Auto vars:     Size  Location     Type
  4142 ;;		None
  4143 ;; Return value:  Size  Location     Type
  4144 ;;                  1    wreg      enum E360
  4145 ;; Registers used:
  4146 ;;		wreg, fsr2l, fsr2h, status,2, status,0, prodl, prodh, cstack
  4147 ;; Tracked objects:
  4148 ;;		On entry : 0/0
  4149 ;;		On exit  : 0/0
  4150 ;;		Unchanged: 0/0
  4151 ;; Data sizes:     COMRAM   BANK0   BANK1   BANK2   BANK3   BANK4   BANK5   BANK6   BANK7
  4152 ;;      Params:         2       0       0       0       0       0       0       0       0
  4153 ;;      Locals:         0       0       0       0       0       0       0       0       0
  4154 ;;      Temps:          0       0       0       0       0       0       0       0       0
  4155 ;;      Totals:         2       0       0       0       0       0       0       0       0
  4156 ;;Total ram usage:        2 bytes
  4157 ;; Hardware stack levels used: 1
  4158 ;; Hardware stack levels required when called: 2
  4159 ;; This function calls:
  4160 ;;		_I2C2_SetBuffer
  4161 ;;		_I2C2_SetDataCompleteCallback
  4162 ;; This function is called by:
  4163 ;;		_I2C2_ReadDataBlock
  4164 ;;		_I2C2_DO_RX_EMPTY
  4165 ;;		_I2C2_DO_TX_EMPTY
  4166 ;;		_I2C2_DO_TX
  4167 ;;		_I2C2_DO_ADDRESS_NACK
  4168 ;;		_I2C2_DO_BUS_COLLISION
  4169 ;; This function uses a non-reentrant model
  4170 ;;
  4171                           
  4172                           	psect	text51
  4173  000F82                     __ptext51:
  4174                           	callstack 0
  4175  000F82                     _rdBlkRegCompleteHandler:
  4176                           	callstack 22
  4177  000F82                     
  4178                           ;mcc_generated_files/examples/i2c2_master_example.c: 170: static i2c2_operations_t rdBlk
      +                          RegCompleteHandler(void *ptr);mcc_generated_files/examples/i2c2_master_example.c: 171: {
      +                          ;mcc_generated_files/examples/i2c2_master_example.c: 172:     I2C2_SetBuffer(((i2c2_buff
      +                          er_t *)ptr)->data,((i2c2_buffer_t*)ptr)->len);
  4179  000F82  EE20 F002          	lfsr	2,2
  4180  000F86  5036               	movf	rdBlkRegCompleteHandler@ptr^0,w,c
  4181  000F88  26D9               	addwf	fsr2l,f,c
  4182  000F8A  5037               	movf	(rdBlkRegCompleteHandler@ptr+1)^0,w,c
  4183  000F8C  22DA               	addwfc	fsr2h,f,c
  4184  000F8E  006F FF78  F02D    	movff	postinc2,I2C2_SetBuffer@buffer
  4185  000F94  006F FF74  F02E    	movff	postdec2,I2C2_SetBuffer@buffer+1
  4186  000F9A  0060  F0DB  FFD9   	movff	rdBlkRegCompleteHandler@ptr,fsr2l
  4187  000FA0  0060  F0DF  FFDA   	movff	rdBlkRegCompleteHandler@ptr+1,fsr2h
  4188  000FA6  006F FF78  F02F    	movff	postinc2,I2C2_SetBuffer@bufferSize
  4189  000FAC  006F FF74  F030    	movff	postdec2,I2C2_SetBuffer@bufferSize+1
  4190  000FB2  ECF0  F008         	call	_I2C2_SetBuffer	;wreg free
  4191  000FB6                     
  4192                           ;mcc_generated_files/examples/i2c2_master_example.c: 173:     I2C2_SetDataCompleteCallba
      +                          ck(((void*)0),((void*)0));
  4193  000FB6  0E00               	movlw	0
  4194  000FB8  6E32               	movwf	I2C2_SetDataCompleteCallback@cb^0,c
  4195  000FBA  0E00               	movlw	0
  4196  000FBC  6E33               	movwf	(I2C2_SetDataCompleteCallback@cb+1)^0,c
  4197  000FBE  0E00               	movlw	0
  4198  000FC0  6E34               	movwf	I2C2_SetDataCompleteCallback@ptr^0,c
  4199  000FC2  0E00               	movlw	0
  4200  000FC4  6E35               	movwf	(I2C2_SetDataCompleteCallback@ptr+1)^0,c
  4201  000FC6  EC36  F009         	call	_I2C2_SetDataCompleteCallback	;wreg free
  4202  000FCA                     
  4203                           ;mcc_generated_files/examples/i2c2_master_example.c: 174:     return I2C2_RESTART_READ;
  4204  000FCA  0E02               	movlw	2
  4205  000FCC  0012               	return		;funcret
  4206  000FCE                     __end_of_rdBlkRegCompleteHandler:
  4207                           	callstack 0
  4208                           
  4209 ;; *************** function _wr1RegCompleteHandler *****************
  4210 ;; Defined at:
  4211 ;;		line 156 in file "mcc_generated_files/examples/i2c2_master_example.c"
  4212 ;; Parameters:    Size  Location     Type
  4213 ;;  ptr             2    9[COMRAM] PTR void 
  4214 ;;		 -> I2C2_ReadDataBlock@bufferBlock(4), I2C2_Write2ByteRegister@data(2), I2C2_Write1ByteRegister@data(1), I2C2_Read2B
      +yteRegister@returnValue(2), 
  4215 ;;		 -> NULL(0), I2C2_Read1ByteRegister@returnValue(1), 
  4216 ;; Auto vars:     Size  Location     Type
  4217 ;;		None
  4218 ;; Return value:  Size  Location     Type
  4219 ;;                  1    wreg      enum E360
  4220 ;; Registers used:
  4221 ;;		wreg, fsr2l, fsr2h, status,2, status,0, prodl, prodh, cstack
  4222 ;; Tracked objects:
  4223 ;;		On entry : 0/0
  4224 ;;		On exit  : 0/0
  4225 ;;		Unchanged: 0/0
  4226 ;; Data sizes:     COMRAM   BANK0   BANK1   BANK2   BANK3   BANK4   BANK5   BANK6   BANK7
  4227 ;;      Params:         2       0       0       0       0       0       0       0       0
  4228 ;;      Locals:         0       0       0       0       0       0       0       0       0
  4229 ;;      Temps:          0       0       0       0       0       0       0       0       0
  4230 ;;      Totals:         2       0       0       0       0       0       0       0       0
  4231 ;;Total ram usage:        2 bytes
  4232 ;; Hardware stack levels used: 1
  4233 ;; Hardware stack levels required when called: 2
  4234 ;; This function calls:
  4235 ;;		_I2C2_SetBuffer
  4236 ;;		_I2C2_SetDataCompleteCallback
  4237 ;; This function is called by:
  4238 ;;		_I2C2_Write1ByteRegister
  4239 ;;		_I2C2_DO_RX_EMPTY
  4240 ;;		_I2C2_DO_TX_EMPTY
  4241 ;;		_I2C2_DO_TX
  4242 ;;		_I2C2_DO_ADDRESS_NACK
  4243 ;;		_I2C2_DO_BUS_COLLISION
  4244 ;; This function uses a non-reentrant model
  4245 ;;
  4246                           
  4247                           	psect	text52
  4248  00104C                     __ptext52:
  4249                           	callstack 0
  4250  00104C                     _wr1RegCompleteHandler:
  4251                           	callstack 22
  4252  00104C                     
  4253                           ;mcc_generated_files/examples/i2c2_master_example.c: 156: static i2c2_operations_t wr1Re
      +                          gCompleteHandler(void *ptr);mcc_generated_files/examples/i2c2_master_example.c: 157: {;m
      +                          cc_generated_files/examples/i2c2_master_example.c: 158:     I2C2_SetBuffer(ptr,1);
  4254  00104C  C036  F02D         	movff	wr1RegCompleteHandler@ptr,I2C2_SetBuffer@buffer
  4255  001050  C037  F02E         	movff	wr1RegCompleteHandler@ptr+1,I2C2_SetBuffer@buffer+1
  4256  001054  0E00               	movlw	0
  4257  001056  6E30               	movwf	(I2C2_SetBuffer@bufferSize+1)^0,c
  4258  001058  0E01               	movlw	1
  4259  00105A  6E2F               	movwf	I2C2_SetBuffer@bufferSize^0,c
  4260  00105C  ECF0  F008         	call	_I2C2_SetBuffer	;wreg free
  4261  001060                     
  4262                           ;mcc_generated_files/examples/i2c2_master_example.c: 159:     I2C2_SetDataCompleteCallba
      +                          ck(((void*)0),((void*)0));
  4263  001060  0E00               	movlw	0
  4264  001062  6E32               	movwf	I2C2_SetDataCompleteCallback@cb^0,c
  4265  001064  0E00               	movlw	0
  4266  001066  6E33               	movwf	(I2C2_SetDataCompleteCallback@cb+1)^0,c
  4267  001068  0E00               	movlw	0
  4268  00106A  6E34               	movwf	I2C2_SetDataCompleteCallback@ptr^0,c
  4269  00106C  0E00               	movlw	0
  4270  00106E  6E35               	movwf	(I2C2_SetDataCompleteCallback@ptr+1)^0,c
  4271  001070  EC36  F009         	call	_I2C2_SetDataCompleteCallback	;wreg free
  4272  001074                     
  4273                           ;mcc_generated_files/examples/i2c2_master_example.c: 160:     return I2C2_CONTINUE;
  4274  001074  0E04               	movlw	4
  4275  001076  0012               	return		;funcret
  4276  001078                     __end_of_wr1RegCompleteHandler:
  4277                           	callstack 0
  4278                           
  4279 ;; *************** function _rd2RegCompleteHandler *****************
  4280 ;; Defined at:
  4281 ;;		line 149 in file "mcc_generated_files/examples/i2c2_master_example.c"
  4282 ;; Parameters:    Size  Location     Type
  4283 ;;  ptr             2    9[COMRAM] PTR void 
  4284 ;;		 -> I2C2_ReadDataBlock@bufferBlock(4), I2C2_Write2ByteRegister@data(2), I2C2_Write1ByteRegister@data(1), I2C2_Read2B
      +yteRegister@returnValue(2), 
  4285 ;;		 -> NULL(0), I2C2_Read1ByteRegister@returnValue(1), 
  4286 ;; Auto vars:     Size  Location     Type
  4287 ;;		None
  4288 ;; Return value:  Size  Location     Type
  4289 ;;                  1    wreg      enum E360
  4290 ;; Registers used:
  4291 ;;		wreg, fsr2l, fsr2h, status,2, status,0, prodl, prodh, cstack
  4292 ;; Tracked objects:
  4293 ;;		On entry : 0/0
  4294 ;;		On exit  : 0/0
  4295 ;;		Unchanged: 0/0
  4296 ;; Data sizes:     COMRAM   BANK0   BANK1   BANK2   BANK3   BANK4   BANK5   BANK6   BANK7
  4297 ;;      Params:         2       0       0       0       0       0       0       0       0
  4298 ;;      Locals:         0       0       0       0       0       0       0       0       0
  4299 ;;      Temps:          0       0       0       0       0       0       0       0       0
  4300 ;;      Totals:         2       0       0       0       0       0       0       0       0
  4301 ;;Total ram usage:        2 bytes
  4302 ;; Hardware stack levels used: 1
  4303 ;; Hardware stack levels required when called: 2
  4304 ;; This function calls:
  4305 ;;		_I2C2_SetBuffer
  4306 ;;		_I2C2_SetDataCompleteCallback
  4307 ;; This function is called by:
  4308 ;;		_I2C2_Read2ByteRegister
  4309 ;;		_I2C2_DO_RX_EMPTY
  4310 ;;		_I2C2_DO_TX_EMPTY
  4311 ;;		_I2C2_DO_TX
  4312 ;;		_I2C2_DO_ADDRESS_NACK
  4313 ;;		_I2C2_DO_BUS_COLLISION
  4314 ;; This function uses a non-reentrant model
  4315 ;;
  4316                           
  4317                           	psect	text53
  4318  001078                     __ptext53:
  4319                           	callstack 0
  4320  001078                     _rd2RegCompleteHandler:
  4321                           	callstack 22
  4322  001078                     
  4323                           ;mcc_generated_files/examples/i2c2_master_example.c: 149: static i2c2_operations_t rd2Re
      +                          gCompleteHandler(void *ptr);mcc_generated_files/examples/i2c2_master_example.c: 150: {;m
      +                          cc_generated_files/examples/i2c2_master_example.c: 151:     I2C2_SetBuffer(ptr,2);
  4324  001078  C036  F02D         	movff	rd2RegCompleteHandler@ptr,I2C2_SetBuffer@buffer
  4325  00107C  C037  F02E         	movff	rd2RegCompleteHandler@ptr+1,I2C2_SetBuffer@buffer+1
  4326  001080  0E00               	movlw	0
  4327  001082  6E30               	movwf	(I2C2_SetBuffer@bufferSize+1)^0,c
  4328  001084  0E02               	movlw	2
  4329  001086  6E2F               	movwf	I2C2_SetBuffer@bufferSize^0,c
  4330  001088  ECF0  F008         	call	_I2C2_SetBuffer	;wreg free
  4331  00108C                     
  4332                           ;mcc_generated_files/examples/i2c2_master_example.c: 152:     I2C2_SetDataCompleteCallba
      +                          ck(((void*)0),((void*)0));
  4333  00108C  0E00               	movlw	0
  4334  00108E  6E32               	movwf	I2C2_SetDataCompleteCallback@cb^0,c
  4335  001090  0E00               	movlw	0
  4336  001092  6E33               	movwf	(I2C2_SetDataCompleteCallback@cb+1)^0,c
  4337  001094  0E00               	movlw	0
  4338  001096  6E34               	movwf	I2C2_SetDataCompleteCallback@ptr^0,c
  4339  001098  0E00               	movlw	0
  4340  00109A  6E35               	movwf	(I2C2_SetDataCompleteCallback@ptr+1)^0,c
  4341  00109C  EC36  F009         	call	_I2C2_SetDataCompleteCallback	;wreg free
  4342  0010A0                     
  4343                           ;mcc_generated_files/examples/i2c2_master_example.c: 153:     return I2C2_RESTART_READ;
  4344  0010A0  0E02               	movlw	2
  4345  0010A2  0012               	return		;funcret
  4346  0010A4                     __end_of_rd2RegCompleteHandler:
  4347                           	callstack 0
  4348                           
  4349 ;; *************** function _rd1RegCompleteHandler *****************
  4350 ;; Defined at:
  4351 ;;		line 142 in file "mcc_generated_files/examples/i2c2_master_example.c"
  4352 ;; Parameters:    Size  Location     Type
  4353 ;;  ptr             2    9[COMRAM] PTR void 
  4354 ;;		 -> I2C2_ReadDataBlock@bufferBlock(4), I2C2_Write2ByteRegister@data(2), I2C2_Write1ByteRegister@data(1), I2C2_Read2B
      +yteRegister@returnValue(2), 
  4355 ;;		 -> NULL(0), I2C2_Read1ByteRegister@returnValue(1), 
  4356 ;; Auto vars:     Size  Location     Type
  4357 ;;		None
  4358 ;; Return value:  Size  Location     Type
  4359 ;;                  1    wreg      enum E360
  4360 ;; Registers used:
  4361 ;;		wreg, fsr2l, fsr2h, status,2, status,0, prodl, prodh, cstack
  4362 ;; Tracked objects:
  4363 ;;		On entry : 0/0
  4364 ;;		On exit  : 0/0
  4365 ;;		Unchanged: 0/0
  4366 ;; Data sizes:     COMRAM   BANK0   BANK1   BANK2   BANK3   BANK4   BANK5   BANK6   BANK7
  4367 ;;      Params:         2       0       0       0       0       0       0       0       0
  4368 ;;      Locals:         0       0       0       0       0       0       0       0       0
  4369 ;;      Temps:          0       0       0       0       0       0       0       0       0
  4370 ;;      Totals:         2       0       0       0       0       0       0       0       0
  4371 ;;Total ram usage:        2 bytes
  4372 ;; Hardware stack levels used: 1
  4373 ;; Hardware stack levels required when called: 2
  4374 ;; This function calls:
  4375 ;;		_I2C2_SetBuffer
  4376 ;;		_I2C2_SetDataCompleteCallback
  4377 ;; This function is called by:
  4378 ;;		_I2C2_Read1ByteRegister
  4379 ;;		_I2C2_DO_RX_EMPTY
  4380 ;;		_I2C2_DO_TX_EMPTY
  4381 ;;		_I2C2_DO_TX
  4382 ;;		_I2C2_DO_ADDRESS_NACK
  4383 ;;		_I2C2_DO_BUS_COLLISION
  4384 ;; This function uses a non-reentrant model
  4385 ;;
  4386                           
  4387                           	psect	text54
  4388  0010A4                     __ptext54:
  4389                           	callstack 0
  4390  0010A4                     _rd1RegCompleteHandler:
  4391                           	callstack 22
  4392  0010A4                     
  4393                           ;mcc_generated_files/examples/i2c2_master_example.c: 142: static i2c2_operations_t rd1Re
      +                          gCompleteHandler(void *ptr);mcc_generated_files/examples/i2c2_master_example.c: 143: {;m
      +                          cc_generated_files/examples/i2c2_master_example.c: 144:     I2C2_SetBuffer(ptr,1);
  4394  0010A4  C036  F02D         	movff	rd1RegCompleteHandler@ptr,I2C2_SetBuffer@buffer
  4395  0010A8  C037  F02E         	movff	rd1RegCompleteHandler@ptr+1,I2C2_SetBuffer@buffer+1
  4396  0010AC  0E00               	movlw	0
  4397  0010AE  6E30               	movwf	(I2C2_SetBuffer@bufferSize+1)^0,c
  4398  0010B0  0E01               	movlw	1
  4399  0010B2  6E2F               	movwf	I2C2_SetBuffer@bufferSize^0,c
  4400  0010B4  ECF0  F008         	call	_I2C2_SetBuffer	;wreg free
  4401  0010B8                     
  4402                           ;mcc_generated_files/examples/i2c2_master_example.c: 145:     I2C2_SetDataCompleteCallba
      +                          ck(((void*)0),((void*)0));
  4403  0010B8  0E00               	movlw	0
  4404  0010BA  6E32               	movwf	I2C2_SetDataCompleteCallback@cb^0,c
  4405  0010BC  0E00               	movlw	0
  4406  0010BE  6E33               	movwf	(I2C2_SetDataCompleteCallback@cb+1)^0,c
  4407  0010C0  0E00               	movlw	0
  4408  0010C2  6E34               	movwf	I2C2_SetDataCompleteCallback@ptr^0,c
  4409  0010C4  0E00               	movlw	0
  4410  0010C6  6E35               	movwf	(I2C2_SetDataCompleteCallback@ptr+1)^0,c
  4411  0010C8  EC36  F009         	call	_I2C2_SetDataCompleteCallback	;wreg free
  4412  0010CC                     
  4413                           ;mcc_generated_files/examples/i2c2_master_example.c: 146:     return I2C2_RESTART_READ;
  4414  0010CC  0E02               	movlw	2
  4415  0010CE  0012               	return		;funcret
  4416  0010D0                     __end_of_rd1RegCompleteHandler:
  4417                           	callstack 0
  4418                           
  4419 ;; *************** function _wr2RegCompleteHandler *****************
  4420 ;; Defined at:
  4421 ;;		line 163 in file "mcc_generated_files/examples/i2c2_master_example.c"
  4422 ;; Parameters:    Size  Location     Type
  4423 ;;  ptr             2    9[COMRAM] PTR void 
  4424 ;;		 -> I2C2_ReadDataBlock@bufferBlock(4), I2C2_Write2ByteRegister@data(2), I2C2_Write1ByteRegister@data(1), I2C2_Read2B
      +yteRegister@returnValue(2), 
  4425 ;;		 -> NULL(0), I2C2_Read1ByteRegister@returnValue(1), 
  4426 ;; Auto vars:     Size  Location     Type
  4427 ;;		None
  4428 ;; Return value:  Size  Location     Type
  4429 ;;                  1    wreg      enum E360
  4430 ;; Registers used:
  4431 ;;		wreg, fsr2l, fsr2h, status,2, status,0, prodl, prodh, cstack
  4432 ;; Tracked objects:
  4433 ;;		On entry : 0/0
  4434 ;;		On exit  : 0/0
  4435 ;;		Unchanged: 0/0
  4436 ;; Data sizes:     COMRAM   BANK0   BANK1   BANK2   BANK3   BANK4   BANK5   BANK6   BANK7
  4437 ;;      Params:         2       0       0       0       0       0       0       0       0
  4438 ;;      Locals:         0       0       0       0       0       0       0       0       0
  4439 ;;      Temps:          0       0       0       0       0       0       0       0       0
  4440 ;;      Totals:         2       0       0       0       0       0       0       0       0
  4441 ;;Total ram usage:        2 bytes
  4442 ;; Hardware stack levels used: 1
  4443 ;; Hardware stack levels required when called: 2
  4444 ;; This function calls:
  4445 ;;		_I2C2_SetBuffer
  4446 ;;		_I2C2_SetDataCompleteCallback
  4447 ;; This function is called by:
  4448 ;;		_I2C2_Write2ByteRegister
  4449 ;;		_I2C2_DO_RX_EMPTY
  4450 ;;		_I2C2_DO_TX_EMPTY
  4451 ;;		_I2C2_DO_TX
  4452 ;;		_I2C2_DO_ADDRESS_NACK
  4453 ;;		_I2C2_DO_BUS_COLLISION
  4454 ;; This function uses a non-reentrant model
  4455 ;;
  4456                           
  4457                           	psect	text55
  4458  0010D0                     __ptext55:
  4459                           	callstack 0
  4460  0010D0                     _wr2RegCompleteHandler:
  4461                           	callstack 22
  4462  0010D0                     
  4463                           ;mcc_generated_files/examples/i2c2_master_example.c: 163: static i2c2_operations_t wr2Re
      +                          gCompleteHandler(void *ptr);mcc_generated_files/examples/i2c2_master_example.c: 164: {;m
      +                          cc_generated_files/examples/i2c2_master_example.c: 165:     I2C2_SetBuffer(ptr,2);
  4464  0010D0  C036  F02D         	movff	wr2RegCompleteHandler@ptr,I2C2_SetBuffer@buffer
  4465  0010D4  C037  F02E         	movff	wr2RegCompleteHandler@ptr+1,I2C2_SetBuffer@buffer+1
  4466  0010D8  0E00               	movlw	0
  4467  0010DA  6E30               	movwf	(I2C2_SetBuffer@bufferSize+1)^0,c
  4468  0010DC  0E02               	movlw	2
  4469  0010DE  6E2F               	movwf	I2C2_SetBuffer@bufferSize^0,c
  4470  0010E0  ECF0  F008         	call	_I2C2_SetBuffer	;wreg free
  4471  0010E4                     
  4472                           ;mcc_generated_files/examples/i2c2_master_example.c: 166:     I2C2_SetDataCompleteCallba
      +                          ck(((void*)0),((void*)0));
  4473  0010E4  0E00               	movlw	0
  4474  0010E6  6E32               	movwf	I2C2_SetDataCompleteCallback@cb^0,c
  4475  0010E8  0E00               	movlw	0
  4476  0010EA  6E33               	movwf	(I2C2_SetDataCompleteCallback@cb+1)^0,c
  4477  0010EC  0E00               	movlw	0
  4478  0010EE  6E34               	movwf	I2C2_SetDataCompleteCallback@ptr^0,c
  4479  0010F0  0E00               	movlw	0
  4480  0010F2  6E35               	movwf	(I2C2_SetDataCompleteCallback@ptr+1)^0,c
  4481  0010F4  EC36  F009         	call	_I2C2_SetDataCompleteCallback	;wreg free
  4482  0010F8                     
  4483                           ;mcc_generated_files/examples/i2c2_master_example.c: 167:     return I2C2_CONTINUE;
  4484  0010F8  0E04               	movlw	4
  4485  0010FA  0012               	return		;funcret
  4486  0010FC                     __end_of_wr2RegCompleteHandler:
  4487                           	callstack 0
  4488                           
  4489 ;; *************** function _I2C2_SetDataCompleteCallback *****************
  4490 ;; Defined at:
  4491 ;;		line 303 in file "mcc_generated_files/i2c2_master.c"
  4492 ;; Parameters:    Size  Location     Type
  4493 ;;  cb              2    5[COMRAM] PTR FTN(PTR void ,)enum 
  4494 ;;		 -> Absolute function(1), rdBlkRegCompleteHandler(1), wr2RegCompleteHandler(1), wr1RegCompleteHandler(1), 
  4495 ;;		 -> rd2RegCompleteHandler(1), rd1RegCompleteHandler(1), 
  4496 ;;  ptr             2    7[COMRAM] PTR void 
  4497 ;;		 -> I2C2_ReadDataBlock@bufferBlock(4), I2C2_Write2ByteRegister@data(2), I2C2_Write1ByteRegister@data(1), I2C2_Read2B
      +yteRegister@returnValue(2), 
  4498 ;;		 -> NULL(0), I2C2_Read1ByteRegister@returnValue(1), 
  4499 ;; Auto vars:     Size  Location     Type
  4500 ;;		None
  4501 ;; Return value:  Size  Location     Type
  4502 ;;                  1    wreg      void 
  4503 ;; Registers used:
  4504 ;;		wreg, fsr2l, fsr2h, status,2, status,0, prodl, prodh, cstack
  4505 ;; Tracked objects:
  4506 ;;		On entry : 0/0
  4507 ;;		On exit  : 0/0
  4508 ;;		Unchanged: 0/0
  4509 ;; Data sizes:     COMRAM   BANK0   BANK1   BANK2   BANK3   BANK4   BANK5   BANK6   BANK7
  4510 ;;      Params:         4       0       0       0       0       0       0       0       0
  4511 ;;      Locals:         0       0       0       0       0       0       0       0       0
  4512 ;;      Temps:          0       0       0       0       0       0       0       0       0
  4513 ;;      Totals:         4       0       0       0       0       0       0       0       0
  4514 ;;Total ram usage:        4 bytes
  4515 ;; Hardware stack levels used: 1
  4516 ;; Hardware stack levels required when called: 1
  4517 ;; This function calls:
  4518 ;;		_I2C2_SetCallback
  4519 ;; This function is called by:
  4520 ;;		_rd1RegCompleteHandler
  4521 ;;		_rd2RegCompleteHandler
  4522 ;;		_wr1RegCompleteHandler
  4523 ;;		_wr2RegCompleteHandler
  4524 ;;		_rdBlkRegCompleteHandler
  4525 ;;		_I2C2_Read1ByteRegister
  4526 ;;		_I2C2_Read2ByteRegister
  4527 ;;		_I2C2_Write1ByteRegister
  4528 ;;		_I2C2_Write2ByteRegister
  4529 ;;		_I2C2_ReadDataBlock
  4530 ;; This function uses a non-reentrant model
  4531 ;;
  4532                           
  4533                           	psect	text56
  4534  00126C                     __ptext56:
  4535                           	callstack 0
  4536  00126C                     _I2C2_SetDataCompleteCallback:
  4537                           	callstack 22
  4538  00126C                     
  4539                           ;mcc_generated_files/i2c2_master.c: 303: void I2C2_SetDataCompleteCallback(i2c2_callback
      +                          _t cb, void *ptr);mcc_generated_files/i2c2_master.c: 304: {;mcc_generated_files/i2c2_mas
      +                          ter.c: 305:     I2C2_SetCallback(I2C2_DATA_COMPLETE, cb, ptr);
  4540  00126C  C032  F02D         	movff	I2C2_SetDataCompleteCallback@cb,I2C2_SetCallback@cb
  4541  001270  C033  F02E         	movff	I2C2_SetDataCompleteCallback@cb+1,I2C2_SetCallback@cb+1
  4542  001274  C034  F02F         	movff	I2C2_SetDataCompleteCallback@ptr,I2C2_SetCallback@ptr
  4543  001278  C035  F030         	movff	I2C2_SetDataCompleteCallback@ptr+1,I2C2_SetCallback@ptr+1
  4544  00127C  0E00               	movlw	0
  4545  00127E  EC88  F005         	call	_I2C2_SetCallback
  4546  001282  0012               	return		;funcret
  4547  001284                     __end_of_I2C2_SetDataCompleteCallback:
  4548                           	callstack 0
  4549                           
  4550 ;; *************** function _I2C2_SetCallback *****************
  4551 ;; Defined at:
  4552 ;;		line 328 in file "mcc_generated_files/i2c2_master.c"
  4553 ;; Parameters:    Size  Location     Type
  4554 ;;  idx             1    wreg     enum E23005
  4555 ;;  cb              2    0[COMRAM] PTR FTN(PTR void ,)enum 
  4556 ;;		 -> Absolute function(1), rdBlkRegCompleteHandler(1), wr2RegCompleteHandler(1), wr1RegCompleteHandler(1), 
  4557 ;;		 -> rd2RegCompleteHandler(1), rd1RegCompleteHandler(1), 
  4558 ;;  ptr             2    2[COMRAM] PTR void 
  4559 ;;		 -> I2C2_ReadDataBlock@bufferBlock(4), I2C2_Write2ByteRegister@data(2), I2C2_Write1ByteRegister@data(1), I2C2_Read2B
      +yteRegister@returnValue(2), 
  4560 ;;		 -> NULL(0), I2C2_Read1ByteRegister@returnValue(1), 
  4561 ;; Auto vars:     Size  Location     Type
  4562 ;;  idx             1    4[COMRAM] enum E23005
  4563 ;; Return value:  Size  Location     Type
  4564 ;;                  1    wreg      void 
  4565 ;; Registers used:
  4566 ;;		wreg, fsr2l, fsr2h, status,2, status,0, prodl, prodh
  4567 ;; Tracked objects:
  4568 ;;		On entry : 0/0
  4569 ;;		On exit  : 0/0
  4570 ;;		Unchanged: 0/0
  4571 ;; Data sizes:     COMRAM   BANK0   BANK1   BANK2   BANK3   BANK4   BANK5   BANK6   BANK7
  4572 ;;      Params:         4       0       0       0       0       0       0       0       0
  4573 ;;      Locals:         1       0       0       0       0       0       0       0       0
  4574 ;;      Temps:          0       0       0       0       0       0       0       0       0
  4575 ;;      Totals:         5       0       0       0       0       0       0       0       0
  4576 ;;Total ram usage:        5 bytes
  4577 ;; Hardware stack levels used: 1
  4578 ;; This function calls:
  4579 ;;		Nothing
  4580 ;; This function is called by:
  4581 ;;		_I2C2_SetDataCompleteCallback
  4582 ;;		_I2C2_SetAddressNackCallback
  4583 ;;		_I2C2_SetWriteCollisionCallback
  4584 ;;		_I2C2_SetDataNackCallback
  4585 ;;		_I2C2_SetTimeoutCallback
  4586 ;; This function uses a non-reentrant model
  4587 ;;
  4588                           
  4589                           	psect	text57
  4590  000B10                     __ptext57:
  4591                           	callstack 0
  4592  000B10                     _I2C2_SetCallback:
  4593                           	callstack 28
  4594                           
  4595                           ;incstack = 0
  4596                           ;I2C2_SetCallback@idx stored from wreg
  4597  000B10  6E31               	movwf	I2C2_SetCallback@idx^0,c
  4598  000B12                     
  4599                           ;mcc_generated_files/i2c2_master.c: 328: static void I2C2_SetCallback(i2c2_callbackIndex
      +                          _t idx, i2c2_callback_t cb, void *ptr);mcc_generated_files/i2c2_master.c: 329: {;mcc_gen
      +                          erated_files/i2c2_master.c: 330:     if(cb)
  4600  000B12  502D               	movf	I2C2_SetCallback@cb^0,w,c
  4601  000B14  102E               	iorwf	(I2C2_SetCallback@cb+1)^0,w,c
  4602  000B16  B4D8               	btfsc	status,2,c
  4603  000B18  EF90  F005         	goto	u591
  4604  000B1C  EF92  F005         	goto	u590
  4605  000B20                     u591:
  4606  000B20  EFB0  F005         	goto	l2179
  4607  000B24                     u590:
  4608  000B24                     
  4609                           ;mcc_generated_files/i2c2_master.c: 331:     {;mcc_generated_files/i2c2_master.c: 332:  
      +                                 I2C2_Status.callbackTable[idx] = cb;
  4610  000B24  5031               	movf	I2C2_SetCallback@idx^0,w,c
  4611  000B26  0D02               	mullw	2
  4612  000B28  0E01               	movlw	low _I2C2_Status
  4613  000B2A  24F3               	addwf	243,w,c
  4614  000B2C  6ED9               	movwf	fsr2l,c
  4615  000B2E  0E00               	movlw	high _I2C2_Status
  4616  000B30  20F4               	addwfc	prodh,w,c
  4617  000B32  6EDA               	movwf	fsr2h,c
  4618  000B34  0060  F0B7  FFDE   	movff	I2C2_SetCallback@cb,postinc2
  4619  000B3A  0060  F0BB  FFDD   	movff	I2C2_SetCallback@cb+1,postdec2
  4620                           
  4621                           ;mcc_generated_files/i2c2_master.c: 333:         I2C2_Status.callbackPayload[idx] = ptr;
  4622  000B40  5031               	movf	I2C2_SetCallback@idx^0,w,c
  4623  000B42  0D02               	mullw	2
  4624  000B44  0E0D               	movlw	low (_I2C2_Status+12)
  4625  000B46  24F3               	addwf	243,w,c
  4626  000B48  6ED9               	movwf	fsr2l,c
  4627  000B4A  0E00               	movlw	high (_I2C2_Status+12)
  4628  000B4C  20F4               	addwfc	prodh,w,c
  4629  000B4E  6EDA               	movwf	fsr2h,c
  4630  000B50  0060  F0BF  FFDE   	movff	I2C2_SetCallback@ptr,postinc2
  4631  000B56  0060  F0C3  FFDD   	movff	I2C2_SetCallback@ptr+1,postdec2
  4632                           
  4633                           ;mcc_generated_files/i2c2_master.c: 334:     }
  4634  000B5C  EFC8  F005         	goto	l397
  4635  000B60                     l2179:
  4636                           
  4637                           ;mcc_generated_files/i2c2_master.c: 336:     {;mcc_generated_files/i2c2_master.c: 337:  
      +                                 I2C2_Status.callbackTable[idx] = I2C2_CallbackReturnStop;
  4638  000B60  5031               	movf	I2C2_SetCallback@idx^0,w,c
  4639  000B62  0D02               	mullw	2
  4640  000B64  0E01               	movlw	low _I2C2_Status
  4641  000B66  24F3               	addwf	243,w,c
  4642  000B68  6ED9               	movwf	fsr2l,c
  4643  000B6A  0E00               	movlw	high _I2C2_Status
  4644  000B6C  20F4               	addwfc	prodh,w,c
  4645  000B6E  6EDA               	movwf	fsr2h,c
  4646  000B70  0E16               	movlw	low _I2C2_CallbackReturnStop
  4647  000B72  6EDE               	movwf	postinc2,c
  4648  000B74  0E14               	movlw	high _I2C2_CallbackReturnStop
  4649  000B76  6EDD               	movwf	postdec2,c
  4650                           
  4651                           ;mcc_generated_files/i2c2_master.c: 338:         I2C2_Status.callbackPayload[idx] = ((vo
      +                          id*)0);
  4652  000B78  5031               	movf	I2C2_SetCallback@idx^0,w,c
  4653  000B7A  0D02               	mullw	2
  4654  000B7C  0E0D               	movlw	low (_I2C2_Status+12)
  4655  000B7E  24F3               	addwf	243,w,c
  4656  000B80  6ED9               	movwf	fsr2l,c
  4657  000B82  0E00               	movlw	high (_I2C2_Status+12)
  4658  000B84  20F4               	addwfc	prodh,w,c
  4659  000B86  6EDA               	movwf	fsr2h,c
  4660  000B88  0E00               	movlw	0
  4661  000B8A  6EDE               	movwf	postinc2,c
  4662  000B8C  0E00               	movlw	0
  4663  000B8E  6EDD               	movwf	postdec2,c
  4664  000B90                     l397:
  4665  000B90  0012               	return		;funcret
  4666  000B92                     __end_of_I2C2_SetCallback:
  4667                           	callstack 0
  4668                           
  4669 ;; *************** function _I2C2_SetBuffer *****************
  4670 ;; Defined at:
  4671 ;;		line 293 in file "mcc_generated_files/i2c2_master.c"
  4672 ;; Parameters:    Size  Location     Type
  4673 ;;  buffer          2    0[COMRAM] PTR void 
  4674 ;;		 -> I2C2_Read1ByteRegister@returnValue.data(3), I2C2_Read2ByteRegister@returnValue.data(3), I2C2_Write1ByteRegister@
      +data.data(3), I2C2_Write2ByteRegister@data.data(3), 
  4675 ;;		 -> i2c_read_data(4), i2c_send_data(6), I2C2_ReadDataBlock@reg(1), I2C2_ReadDataBlock@bufferBlock(4), 
  4676 ;;		 -> bufferBlock.data(3), I2C2_Write2ByteRegister@reg(1), I2C2_Write2ByteRegister@data(2), I2C2_Write1ByteRegister@re
      +g(1), 
  4677 ;;		 -> I2C2_Write1ByteRegister@data(1), I2C2_Read2ByteRegister@reg(1), I2C2_Read2ByteRegister@returnValue(2), NULL(0), 
  4678 ;;		 -> I2C2_Read1ByteRegister@reg(1), I2C2_Read1ByteRegister@returnValue(1), 
  4679 ;;  bufferSize      2    2[COMRAM] unsigned int 
  4680 ;; Auto vars:     Size  Location     Type
  4681 ;;		None
  4682 ;; Return value:  Size  Location     Type
  4683 ;;                  1    wreg      void 
  4684 ;; Registers used:
  4685 ;;		wreg, status,2, status,0
  4686 ;; Tracked objects:
  4687 ;;		On entry : 0/0
  4688 ;;		On exit  : 0/0
  4689 ;;		Unchanged: 0/0
  4690 ;; Data sizes:     COMRAM   BANK0   BANK1   BANK2   BANK3   BANK4   BANK5   BANK6   BANK7
  4691 ;;      Params:         4       0       0       0       0       0       0       0       0
  4692 ;;      Locals:         0       0       0       0       0       0       0       0       0
  4693 ;;      Temps:          0       0       0       0       0       0       0       0       0
  4694 ;;      Totals:         4       0       0       0       0       0       0       0       0
  4695 ;;Total ram usage:        4 bytes
  4696 ;; Hardware stack levels used: 1
  4697 ;; This function calls:
  4698 ;;		Nothing
  4699 ;; This function is called by:
  4700 ;;		_I2C2_WriteNBytes
  4701 ;;		_I2C2_ReadNBytes
  4702 ;;		_rd1RegCompleteHandler
  4703 ;;		_rd2RegCompleteHandler
  4704 ;;		_wr1RegCompleteHandler
  4705 ;;		_wr2RegCompleteHandler
  4706 ;;		_rdBlkRegCompleteHandler
  4707 ;;		_I2C2_Read1ByteRegister
  4708 ;;		_I2C2_Read2ByteRegister
  4709 ;;		_I2C2_Write1ByteRegister
  4710 ;;		_I2C2_Write2ByteRegister
  4711 ;;		_I2C2_ReadDataBlock
  4712 ;; This function uses a non-reentrant model
  4713 ;;
  4714                           
  4715                           	psect	text58
  4716  0011E0                     __ptext58:
  4717                           	callstack 0
  4718  0011E0                     _I2C2_SetBuffer:
  4719                           	callstack 29
  4720  0011E0                     
  4721                           ;mcc_generated_files/i2c2_master.c: 293: void I2C2_SetBuffer(void *buffer, size_t buffer
      +                          Size);mcc_generated_files/i2c2_master.c: 294: {;mcc_generated_files/i2c2_master.c: 295: 
      +                              if(I2C2_Status.bufferFree)
  4722  0011E0  A824               	btfss	(_I2C2_Status+35)^0,4,c
  4723  0011E2  EFF5  F008         	goto	u601
  4724  0011E6  EFF7  F008         	goto	u600
  4725  0011EA                     u601:
  4726  0011EA  EF00  F009         	goto	l377
  4727  0011EE                     u600:
  4728  0011EE                     
  4729                           ;mcc_generated_files/i2c2_master.c: 296:     {;mcc_generated_files/i2c2_master.c: 297:  
      +                                 I2C2_Status.data_ptr = buffer;
  4730  0011EE  C02D  F01E         	movff	I2C2_SetBuffer@buffer,_I2C2_Status+29
  4731  0011F2  C02E  F01F         	movff	I2C2_SetBuffer@buffer+1,_I2C2_Status+30
  4732  0011F6                     
  4733                           ;mcc_generated_files/i2c2_master.c: 298:         I2C2_Status.data_length = bufferSize;
  4734  0011F6  C02F  F020         	movff	I2C2_SetBuffer@bufferSize,_I2C2_Status+31
  4735  0011FA  C030  F021         	movff	I2C2_SetBuffer@bufferSize+1,_I2C2_Status+32
  4736  0011FE                     
  4737                           ;mcc_generated_files/i2c2_master.c: 299:         I2C2_Status.bufferFree = 0;
  4738  0011FE  9824               	bcf	(_I2C2_Status+35)^0,4,c
  4739  001200                     l377:
  4740  001200  0012               	return		;funcret
  4741  001202                     __end_of_I2C2_SetBuffer:
  4742                           	callstack 0
  4743                           
  4744 ;; *************** function _I2C2_ClearInterruptFlags *****************
  4745 ;; Defined at:
  4746 ;;		line 362 in file "mcc_generated_files/i2c2_master.c"
  4747 ;; Parameters:    Size  Location     Type
  4748 ;;		None
  4749 ;; Auto vars:     Size  Location     Type
  4750 ;;		None
  4751 ;; Return value:  Size  Location     Type
  4752 ;;                  1    wreg      void 
  4753 ;; Registers used:
  4754 ;;		wreg, status,2, cstack
  4755 ;; Tracked objects:
  4756 ;;		On entry : 0/0
  4757 ;;		On exit  : 0/0
  4758 ;;		Unchanged: 0/0
  4759 ;; Data sizes:     COMRAM   BANK0   BANK1   BANK2   BANK3   BANK4   BANK5   BANK6   BANK7
  4760 ;;      Params:         0       0       0       0       0       0       0       0       0
  4761 ;;      Locals:         0       0       0       0       0       0       0       0       0
  4762 ;;      Temps:          0       0       0       0       0       0       0       0       0
  4763 ;;      Totals:         0       0       0       0       0       0       0       0       0
  4764 ;;Total ram usage:        0 bytes
  4765 ;; Hardware stack levels used: 1
  4766 ;; Hardware stack levels required when called: 1
  4767 ;; This function calls:
  4768 ;;		_I2C2_MasterClearCountFlag
  4769 ;;		_I2C2_MasterClearNackFlag
  4770 ;;		_I2C2_MasterClearStopFlag
  4771 ;;		_I2C2_MasterIsCountFlagSet
  4772 ;;		_I2C2_MasterIsNackFlagSet
  4773 ;;		_I2C2_MasterIsStopFlagSet
  4774 ;; This function is called by:
  4775 ;;		_I2C2_MasterFsm
  4776 ;; This function uses a non-reentrant model
  4777 ;;
  4778                           
  4779                           	psect	text59
  4780  000EE4                     __ptext59:
  4781                           	callstack 0
  4782  000EE4                     _I2C2_ClearInterruptFlags:
  4783                           	callstack 24
  4784  000EE4                     
  4785                           ;mcc_generated_files/i2c2_master.c: 364:     if(I2C2_MasterIsCountFlagSet())
  4786  000EE4  EC79  F009         	call	_I2C2_MasterIsCountFlagSet	;wreg free
  4787  000EE8  0900               	iorlw	0
  4788  000EEA  B4D8               	btfsc	status,2,c
  4789  000EEC  EF7A  F007         	goto	u131
  4790  000EF0  EF7C  F007         	goto	u130
  4791  000EF4                     u131:
  4792  000EF4  EF80  F007         	goto	l1579
  4793  000EF8                     u130:
  4794  000EF8                     
  4795                           ;mcc_generated_files/i2c2_master.c: 365:     {;mcc_generated_files/i2c2_master.c: 366:  
      +                                 I2C2_MasterClearCountFlag();
  4796  000EF8  EC02  F00A         	call	_I2C2_MasterClearCountFlag	;wreg free
  4797                           
  4798                           ;mcc_generated_files/i2c2_master.c: 367:     }
  4799  000EFC  EF9A  F007         	goto	l415
  4800  000F00                     l1579:
  4801  000F00  EC63  F009         	call	_I2C2_MasterIsStopFlagSet	;wreg free
  4802  000F04  0900               	iorlw	0
  4803  000F06  B4D8               	btfsc	status,2,c
  4804  000F08  EF88  F007         	goto	u141
  4805  000F0C  EF8A  F007         	goto	u140
  4806  000F10                     u141:
  4807  000F10  EF8E  F007         	goto	l1583
  4808  000F14                     u140:
  4809  000F14                     
  4810                           ;mcc_generated_files/i2c2_master.c: 369:     {;mcc_generated_files/i2c2_master.c: 370:  
      +                                 I2C2_MasterClearStopFlag();
  4811  000F14  ECFC  F009         	call	_I2C2_MasterClearStopFlag	;wreg free
  4812                           
  4813                           ;mcc_generated_files/i2c2_master.c: 371:     }
  4814  000F18  EF9A  F007         	goto	l415
  4815  000F1C                     l1583:
  4816  000F1C  EC6E  F009         	call	_I2C2_MasterIsNackFlagSet	;wreg free
  4817  000F20  0900               	iorlw	0
  4818  000F22  B4D8               	btfsc	status,2,c
  4819  000F24  EF96  F007         	goto	u151
  4820  000F28  EF98  F007         	goto	u150
  4821  000F2C                     u151:
  4822  000F2C  EF9A  F007         	goto	l415
  4823  000F30                     u150:
  4824  000F30                     
  4825                           ;mcc_generated_files/i2c2_master.c: 373:     {;mcc_generated_files/i2c2_master.c: 374:  
      +                                 I2C2_MasterClearNackFlag();
  4826  000F30  ECFF  F009         	call	_I2C2_MasterClearNackFlag	;wreg free
  4827  000F34                     l415:
  4828  000F34  0012               	return		;funcret
  4829  000F36                     __end_of_I2C2_ClearInterruptFlags:
  4830                           	callstack 0
  4831                           
  4832 ;; *************** function _I2C2_MasterIsStopFlagSet *****************
  4833 ;; Defined at:
  4834 ;;		line 741 in file "mcc_generated_files/i2c2_master.c"
  4835 ;; Parameters:    Size  Location     Type
  4836 ;;		None
  4837 ;; Auto vars:     Size  Location     Type
  4838 ;;		None
  4839 ;; Return value:  Size  Location     Type
  4840 ;;                  1    wreg      _Bool 
  4841 ;; Registers used:
  4842 ;;		wreg
  4843 ;; Tracked objects:
  4844 ;;		On entry : 0/0
  4845 ;;		On exit  : 0/0
  4846 ;;		Unchanged: 0/0
  4847 ;; Data sizes:     COMRAM   BANK0   BANK1   BANK2   BANK3   BANK4   BANK5   BANK6   BANK7
  4848 ;;      Params:         0       0       0       0       0       0       0       0       0
  4849 ;;      Locals:         0       0       0       0       0       0       0       0       0
  4850 ;;      Temps:          0       0       0       0       0       0       0       0       0
  4851 ;;      Totals:         0       0       0       0       0       0       0       0       0
  4852 ;;Total ram usage:        0 bytes
  4853 ;; Hardware stack levels used: 1
  4854 ;; This function calls:
  4855 ;;		Nothing
  4856 ;; This function is called by:
  4857 ;;		_I2C2_ClearInterruptFlags
  4858 ;; This function uses a non-reentrant model
  4859 ;;
  4860                           
  4861                           	psect	text60
  4862  0012C6                     __ptext60:
  4863                           	callstack 0
  4864  0012C6                     _I2C2_MasterIsStopFlagSet:
  4865                           	callstack 24
  4866  0012C6                     
  4867                           ;mcc_generated_files/i2c2_master.c: 743:     return I2C2PIRbits.PCIF;
  4868  0012C6  013D               	movlb	61	; () banked
  4869  0012C8  B563               	btfsc	99,2,b	;volatile
  4870  0012CA  EF69  F009         	goto	u81
  4871  0012CE  EF6C  F009         	goto	u80
  4872  0012D2                     u81:
  4873  0012D2  0E01               	movlw	1
  4874  0012D4  EF6D  F009         	goto	u86
  4875  0012D8                     u80:
  4876  0012D8  0E00               	movlw	0
  4877  0012DA                     u86:
  4878  0012DA                     
  4879                           ; BSR set to: 61
  4880  0012DA  0012               	return		;funcret
  4881  0012DC                     __end_of_I2C2_MasterIsStopFlagSet:
  4882                           	callstack 0
  4883                           
  4884 ;; *************** function _I2C2_MasterIsNackFlagSet *****************
  4885 ;; Defined at:
  4886 ;;		line 751 in file "mcc_generated_files/i2c2_master.c"
  4887 ;; Parameters:    Size  Location     Type
  4888 ;;		None
  4889 ;; Auto vars:     Size  Location     Type
  4890 ;;		None
  4891 ;; Return value:  Size  Location     Type
  4892 ;;                  1    wreg      _Bool 
  4893 ;; Registers used:
  4894 ;;		wreg
  4895 ;; Tracked objects:
  4896 ;;		On entry : 0/0
  4897 ;;		On exit  : 0/0
  4898 ;;		Unchanged: 0/0
  4899 ;; Data sizes:     COMRAM   BANK0   BANK1   BANK2   BANK3   BANK4   BANK5   BANK6   BANK7
  4900 ;;      Params:         0       0       0       0       0       0       0       0       0
  4901 ;;      Locals:         0       0       0       0       0       0       0       0       0
  4902 ;;      Temps:          0       0       0       0       0       0       0       0       0
  4903 ;;      Totals:         0       0       0       0       0       0       0       0       0
  4904 ;;Total ram usage:        0 bytes
  4905 ;; Hardware stack levels used: 1
  4906 ;; This function calls:
  4907 ;;		Nothing
  4908 ;; This function is called by:
  4909 ;;		_I2C2_ClearInterruptFlags
  4910 ;; This function uses a non-reentrant model
  4911 ;;
  4912                           
  4913                           	psect	text61
  4914  0012DC                     __ptext61:
  4915                           	callstack 0
  4916  0012DC                     _I2C2_MasterIsNackFlagSet:
  4917                           	callstack 24
  4918  0012DC                     
  4919                           ;mcc_generated_files/i2c2_master.c: 753:     return I2C2ERRbits.NACKIF;
  4920  0012DC  013D               	movlb	61	; () banked
  4921  0012DE  B960               	btfsc	96,4,b	;volatile
  4922  0012E0  EF74  F009         	goto	u91
  4923  0012E4  EF77  F009         	goto	u90
  4924  0012E8                     u91:
  4925  0012E8  0E01               	movlw	1
  4926  0012EA  EF78  F009         	goto	u96
  4927  0012EE                     u90:
  4928  0012EE  0E00               	movlw	0
  4929  0012F0                     u96:
  4930  0012F0                     
  4931                           ; BSR set to: 61
  4932  0012F0  0012               	return		;funcret
  4933  0012F2                     __end_of_I2C2_MasterIsNackFlagSet:
  4934                           	callstack 0
  4935                           
  4936 ;; *************** function _I2C2_MasterIsCountFlagSet *****************
  4937 ;; Defined at:
  4938 ;;		line 746 in file "mcc_generated_files/i2c2_master.c"
  4939 ;; Parameters:    Size  Location     Type
  4940 ;;		None
  4941 ;; Auto vars:     Size  Location     Type
  4942 ;;		None
  4943 ;; Return value:  Size  Location     Type
  4944 ;;                  1    wreg      _Bool 
  4945 ;; Registers used:
  4946 ;;		wreg
  4947 ;; Tracked objects:
  4948 ;;		On entry : 0/0
  4949 ;;		On exit  : 0/0
  4950 ;;		Unchanged: 0/0
  4951 ;; Data sizes:     COMRAM   BANK0   BANK1   BANK2   BANK3   BANK4   BANK5   BANK6   BANK7
  4952 ;;      Params:         0       0       0       0       0       0       0       0       0
  4953 ;;      Locals:         0       0       0       0       0       0       0       0       0
  4954 ;;      Temps:          0       0       0       0       0       0       0       0       0
  4955 ;;      Totals:         0       0       0       0       0       0       0       0       0
  4956 ;;Total ram usage:        0 bytes
  4957 ;; Hardware stack levels used: 1
  4958 ;; This function calls:
  4959 ;;		Nothing
  4960 ;; This function is called by:
  4961 ;;		_I2C2_ClearInterruptFlags
  4962 ;; This function uses a non-reentrant model
  4963 ;;
  4964                           
  4965                           	psect	text62
  4966  0012F2                     __ptext62:
  4967                           	callstack 0
  4968  0012F2                     _I2C2_MasterIsCountFlagSet:
  4969                           	callstack 24
  4970  0012F2                     
  4971                           ;mcc_generated_files/i2c2_master.c: 748:     return I2C2PIRbits.CNTIF;
  4972  0012F2  013D               	movlb	61	; () banked
  4973  0012F4  BF63               	btfsc	99,7,b	;volatile
  4974  0012F6  EF7F  F009         	goto	u71
  4975  0012FA  EF82  F009         	goto	u70
  4976  0012FE                     u71:
  4977  0012FE  0E01               	movlw	1
  4978  001300  EF83  F009         	goto	u76
  4979  001304                     u70:
  4980  001304  0E00               	movlw	0
  4981  001306                     u76:
  4982  001306                     
  4983                           ; BSR set to: 61
  4984  001306  0012               	return		;funcret
  4985  001308                     __end_of_I2C2_MasterIsCountFlagSet:
  4986                           	callstack 0
  4987                           
  4988 ;; *************** function _I2C2_MasterClearStopFlag *****************
  4989 ;; Defined at:
  4990 ;;		line 756 in file "mcc_generated_files/i2c2_master.c"
  4991 ;; Parameters:    Size  Location     Type
  4992 ;;		None
  4993 ;; Auto vars:     Size  Location     Type
  4994 ;;		None
  4995 ;; Return value:  Size  Location     Type
  4996 ;;                  1    wreg      void 
  4997 ;; Registers used:
  4998 ;;		None
  4999 ;; Tracked objects:
  5000 ;;		On entry : 0/0
  5001 ;;		On exit  : 0/0
  5002 ;;		Unchanged: 0/0
  5003 ;; Data sizes:     COMRAM   BANK0   BANK1   BANK2   BANK3   BANK4   BANK5   BANK6   BANK7
  5004 ;;      Params:         0       0       0       0       0       0       0       0       0
  5005 ;;      Locals:         0       0       0       0       0       0       0       0       0
  5006 ;;      Temps:          0       0       0       0       0       0       0       0       0
  5007 ;;      Totals:         0       0       0       0       0       0       0       0       0
  5008 ;;Total ram usage:        0 bytes
  5009 ;; Hardware stack levels used: 1
  5010 ;; This function calls:
  5011 ;;		Nothing
  5012 ;; This function is called by:
  5013 ;;		_I2C2_ClearInterruptFlags
  5014 ;; This function uses a non-reentrant model
  5015 ;;
  5016                           
  5017                           	psect	text63
  5018  0013F8                     __ptext63:
  5019                           	callstack 0
  5020  0013F8                     _I2C2_MasterClearStopFlag:
  5021                           	callstack 24
  5022  0013F8                     
  5023                           ;mcc_generated_files/i2c2_master.c: 758:     I2C2PIRbits.PCIF = 0;
  5024  0013F8  013D               	movlb	61	; () banked
  5025  0013FA  9563               	bcf	99,2,b	;volatile
  5026  0013FC                     
  5027                           ; BSR set to: 61
  5028  0013FC  0012               	return		;funcret
  5029  0013FE                     __end_of_I2C2_MasterClearStopFlag:
  5030                           	callstack 0
  5031                           
  5032 ;; *************** function _I2C2_MasterClearNackFlag *****************
  5033 ;; Defined at:
  5034 ;;		line 766 in file "mcc_generated_files/i2c2_master.c"
  5035 ;; Parameters:    Size  Location     Type
  5036 ;;		None
  5037 ;; Auto vars:     Size  Location     Type
  5038 ;;		None
  5039 ;; Return value:  Size  Location     Type
  5040 ;;                  1    wreg      void 
  5041 ;; Registers used:
  5042 ;;		None
  5043 ;; Tracked objects:
  5044 ;;		On entry : 0/0
  5045 ;;		On exit  : 0/0
  5046 ;;		Unchanged: 0/0
  5047 ;; Data sizes:     COMRAM   BANK0   BANK1   BANK2   BANK3   BANK4   BANK5   BANK6   BANK7
  5048 ;;      Params:         0       0       0       0       0       0       0       0       0
  5049 ;;      Locals:         0       0       0       0       0       0       0       0       0
  5050 ;;      Temps:          0       0       0       0       0       0       0       0       0
  5051 ;;      Totals:         0       0       0       0       0       0       0       0       0
  5052 ;;Total ram usage:        0 bytes
  5053 ;; Hardware stack levels used: 1
  5054 ;; This function calls:
  5055 ;;		Nothing
  5056 ;; This function is called by:
  5057 ;;		_I2C2_ClearInterruptFlags
  5058 ;; This function uses a non-reentrant model
  5059 ;;
  5060                           
  5061                           	psect	text64
  5062  0013FE                     __ptext64:
  5063                           	callstack 0
  5064  0013FE                     _I2C2_MasterClearNackFlag:
  5065                           	callstack 24
  5066  0013FE                     
  5067                           ;mcc_generated_files/i2c2_master.c: 768:     I2C2ERRbits.NACKIF = 0;
  5068  0013FE  013D               	movlb	61	; () banked
  5069  001400  9960               	bcf	96,4,b	;volatile
  5070  001402                     
  5071                           ; BSR set to: 61
  5072  001402  0012               	return		;funcret
  5073  001404                     __end_of_I2C2_MasterClearNackFlag:
  5074                           	callstack 0
  5075                           
  5076 ;; *************** function _I2C2_MasterClearCountFlag *****************
  5077 ;; Defined at:
  5078 ;;		line 761 in file "mcc_generated_files/i2c2_master.c"
  5079 ;; Parameters:    Size  Location     Type
  5080 ;;		None
  5081 ;; Auto vars:     Size  Location     Type
  5082 ;;		None
  5083 ;; Return value:  Size  Location     Type
  5084 ;;                  1    wreg      void 
  5085 ;; Registers used:
  5086 ;;		None
  5087 ;; Tracked objects:
  5088 ;;		On entry : 0/0
  5089 ;;		On exit  : 0/0
  5090 ;;		Unchanged: 0/0
  5091 ;; Data sizes:     COMRAM   BANK0   BANK1   BANK2   BANK3   BANK4   BANK5   BANK6   BANK7
  5092 ;;      Params:         0       0       0       0       0       0       0       0       0
  5093 ;;      Locals:         0       0       0       0       0       0       0       0       0
  5094 ;;      Temps:          0       0       0       0       0       0       0       0       0
  5095 ;;      Totals:         0       0       0       0       0       0       0       0       0
  5096 ;;Total ram usage:        0 bytes
  5097 ;; Hardware stack levels used: 1
  5098 ;; This function calls:
  5099 ;;		Nothing
  5100 ;; This function is called by:
  5101 ;;		_I2C2_ClearInterruptFlags
  5102 ;; This function uses a non-reentrant model
  5103 ;;
  5104                           
  5105                           	psect	text65
  5106  001404                     __ptext65:
  5107                           	callstack 0
  5108  001404                     _I2C2_MasterClearCountFlag:
  5109                           	callstack 24
  5110  001404                     
  5111                           ;mcc_generated_files/i2c2_master.c: 763:     I2C2PIRbits.CNTIF = 0;
  5112  001404  013D               	movlb	61	; () banked
  5113  001406  9F63               	bcf	99,7,b	;volatile
  5114  001408                     
  5115                           ; BSR set to: 61
  5116  001408  0012               	return		;funcret
  5117  00140A                     __end_of_I2C2_MasterClearCountFlag:
  5118                           	callstack 0
  5119                           
  5120 ;; *************** function _I2C2_Close *****************
  5121 ;; Defined at:
  5122 ;;		line 237 in file "mcc_generated_files/i2c2_master.c"
  5123 ;; Parameters:    Size  Location     Type
  5124 ;;		None
  5125 ;; Auto vars:     Size  Location     Type
  5126 ;;  returnValue     1    0[COMRAM] enum E355
  5127 ;; Return value:  Size  Location     Type
  5128 ;;                  1    wreg      enum E355
  5129 ;; Registers used:
  5130 ;;		wreg, status,2, cstack
  5131 ;; Tracked objects:
  5132 ;;		On entry : 0/0
  5133 ;;		On exit  : 0/0
  5134 ;;		Unchanged: 0/0
  5135 ;; Data sizes:     COMRAM   BANK0   BANK1   BANK2   BANK3   BANK4   BANK5   BANK6   BANK7
  5136 ;;      Params:         0       0       0       0       0       0       0       0       0
  5137 ;;      Locals:         1       0       0       0       0       0       0       0       0
  5138 ;;      Temps:          0       0       0       0       0       0       0       0       0
  5139 ;;      Totals:         1       0       0       0       0       0       0       0       0
  5140 ;;Total ram usage:        1 bytes
  5141 ;; Hardware stack levels used: 1
  5142 ;; Hardware stack levels required when called: 1
  5143 ;; This function calls:
  5144 ;;		_I2C2_MasterClearIrq
  5145 ;;		_I2C2_MasterClose
  5146 ;;		_I2C2_MasterDisableIrq
  5147 ;; This function is called by:
  5148 ;;		_I2C2_WriteNBytes
  5149 ;;		_I2C2_ReadNBytes
  5150 ;;		_I2C2_Read1ByteRegister
  5151 ;;		_I2C2_Read2ByteRegister
  5152 ;;		_I2C2_Write1ByteRegister
  5153 ;;		_I2C2_Write2ByteRegister
  5154 ;;		_I2C2_ReadDataBlock
  5155 ;; This function uses a non-reentrant model
  5156 ;;
  5157                           
  5158                           	psect	text66
  5159  001126                     __ptext66:
  5160                           	callstack 0
  5161  001126                     _I2C2_Close:
  5162                           	callstack 28
  5163  001126                     
  5164                           ;mcc_generated_files/i2c2_master.c: 239:     i2c2_error_t returnValue = I2C2_BUSY;
  5165  001126  0E01               	movlw	1
  5166  001128  6E2D               	movwf	I2C2_Close@returnValue^0,c
  5167  00112A                     
  5168                           ;mcc_generated_files/i2c2_master.c: 240:     if(!I2C2_Status.busy)
  5169  00112A  B424               	btfsc	(_I2C2_Status+35)^0,2,c
  5170  00112C  EF9A  F008         	goto	u401
  5171  001130  EF9C  F008         	goto	u400
  5172  001134                     u401:
  5173  001134  EFA6  F008         	goto	l1899
  5174  001138                     u400:
  5175  001138                     
  5176                           ;mcc_generated_files/i2c2_master.c: 241:     {;mcc_generated_files/i2c2_master.c: 242:  
      +                                 I2C2_Status.inUse = 0;
  5177  001138  9624               	bcf	(_I2C2_Status+35)^0,3,c
  5178                           
  5179                           ;mcc_generated_files/i2c2_master.c: 243:         I2C2_Status.address = 0xff;
  5180  00113A  681D               	setf	(_I2C2_Status+28)^0,c
  5181  00113C                     
  5182                           ;mcc_generated_files/i2c2_master.c: 244:         I2C2_MasterClearIrq();
  5183  00113C  ECE0  F009         	call	_I2C2_MasterClearIrq	;wreg free
  5184  001140                     
  5185                           ;mcc_generated_files/i2c2_master.c: 245:         I2C2_MasterDisableIrq();
  5186  001140  EC01  F009         	call	_I2C2_MasterDisableIrq	;wreg free
  5187  001144                     
  5188                           ;mcc_generated_files/i2c2_master.c: 246:         I2C2_MasterClose();
  5189  001144  ECB2  F009         	call	_I2C2_MasterClose	;wreg free
  5190  001148                     
  5191                           ;mcc_generated_files/i2c2_master.c: 247:         returnValue = I2C2_Status.error;
  5192  001148  C023  F02D         	movff	_I2C2_Status+34,I2C2_Close@returnValue
  5193  00114C                     l1899:
  5194                           
  5195                           ;mcc_generated_files/i2c2_master.c: 249:     return returnValue;
  5196  00114C  502D               	movf	I2C2_Close@returnValue^0,w,c
  5197  00114E  0012               	return		;funcret
  5198  001150                     __end_of_I2C2_Close:
  5199                           	callstack 0
  5200                           
  5201 ;; *************** function _I2C2_MasterDisableIrq *****************
  5202 ;; Defined at:
  5203 ;;		line 788 in file "mcc_generated_files/i2c2_master.c"
  5204 ;; Parameters:    Size  Location     Type
  5205 ;;		None
  5206 ;; Auto vars:     Size  Location     Type
  5207 ;;		None
  5208 ;; Return value:  Size  Location     Type
  5209 ;;                  1    wreg      void 
  5210 ;; Registers used:
  5211 ;;		None
  5212 ;; Tracked objects:
  5213 ;;		On entry : 0/0
  5214 ;;		On exit  : 0/0
  5215 ;;		Unchanged: 0/0
  5216 ;; Data sizes:     COMRAM   BANK0   BANK1   BANK2   BANK3   BANK4   BANK5   BANK6   BANK7
  5217 ;;      Params:         0       0       0       0       0       0       0       0       0
  5218 ;;      Locals:         0       0       0       0       0       0       0       0       0
  5219 ;;      Temps:          0       0       0       0       0       0       0       0       0
  5220 ;;      Totals:         0       0       0       0       0       0       0       0       0
  5221 ;;Total ram usage:        0 bytes
  5222 ;; Hardware stack levels used: 1
  5223 ;; This function calls:
  5224 ;;		Nothing
  5225 ;; This function is called by:
  5226 ;;		_I2C2_Close
  5227 ;;		_I2C2_SetTimeOut
  5228 ;; This function uses a non-reentrant model
  5229 ;;
  5230                           
  5231                           	psect	text67
  5232  001202                     __ptext67:
  5233                           	callstack 0
  5234  001202                     _I2C2_MasterDisableIrq:
  5235                           	callstack 28
  5236  001202                     
  5237                           ;mcc_generated_files/i2c2_master.c: 790:     PIE7bits.I2C2IE = 0;
  5238  001202  0139               	movlb	57	; () banked
  5239  001204  9597               	bcf	151,2,b	;volatile
  5240                           
  5241                           ;mcc_generated_files/i2c2_master.c: 791:     PIE7bits.I2C2EIE = 0;
  5242  001206  9797               	bcf	151,3,b	;volatile
  5243                           
  5244                           ;mcc_generated_files/i2c2_master.c: 792:     PIE7bits.I2C2RXIE = 0;
  5245  001208  9197               	bcf	151,0,b	;volatile
  5246                           
  5247                           ;mcc_generated_files/i2c2_master.c: 793:     PIE7bits.I2C2TXIE = 0;
  5248  00120A  9397               	bcf	151,1,b	;volatile
  5249                           
  5250                           ;mcc_generated_files/i2c2_master.c: 794:     I2C2PIEbits.SCIE = 0;
  5251  00120C  013D               	movlb	61	; () banked
  5252  00120E  9164               	bcf	100,0,b	;volatile
  5253                           
  5254                           ;mcc_generated_files/i2c2_master.c: 795:     I2C2PIEbits.PCIE = 0;
  5255  001210  9564               	bcf	100,2,b	;volatile
  5256                           
  5257                           ;mcc_generated_files/i2c2_master.c: 796:     I2C2PIEbits.CNTIE = 0;
  5258  001212  9F64               	bcf	100,7,b	;volatile
  5259                           
  5260                           ;mcc_generated_files/i2c2_master.c: 797:     I2C2PIEbits.ACKTIE = 0;
  5261  001214  9D64               	bcf	100,6,b	;volatile
  5262                           
  5263                           ;mcc_generated_files/i2c2_master.c: 798:     I2C2PIEbits.RSCIE = 0;
  5264  001216  9364               	bcf	100,1,b	;volatile
  5265                           
  5266                           ;mcc_generated_files/i2c2_master.c: 799:     I2C2ERRbits.BCLIE = 0;
  5267  001218  9360               	bcf	96,1,b	;volatile
  5268                           
  5269                           ;mcc_generated_files/i2c2_master.c: 800:     I2C2ERRbits.BTOIE = 0;
  5270  00121A  9560               	bcf	96,2,b	;volatile
  5271                           
  5272                           ;mcc_generated_files/i2c2_master.c: 801:     I2C2ERRbits.NACKIE = 0;
  5273  00121C  9160               	bcf	96,0,b	;volatile
  5274  00121E                     
  5275                           ; BSR set to: 61
  5276  00121E  0012               	return		;funcret
  5277  001220                     __end_of_I2C2_MasterDisableIrq:
  5278                           	callstack 0
  5279                           
  5280 ;; *************** function _I2C2_MasterClose *****************
  5281 ;; Defined at:
  5282 ;;		line 651 in file "mcc_generated_files/i2c2_master.c"
  5283 ;; Parameters:    Size  Location     Type
  5284 ;;		None
  5285 ;; Auto vars:     Size  Location     Type
  5286 ;;		None
  5287 ;; Return value:  Size  Location     Type
  5288 ;;                  1    wreg      void 
  5289 ;; Registers used:
  5290 ;;		wreg, status,2
  5291 ;; Tracked objects:
  5292 ;;		On entry : 0/0
  5293 ;;		On exit  : 0/0
  5294 ;;		Unchanged: 0/0
  5295 ;; Data sizes:     COMRAM   BANK0   BANK1   BANK2   BANK3   BANK4   BANK5   BANK6   BANK7
  5296 ;;      Params:         0       0       0       0       0       0       0       0       0
  5297 ;;      Locals:         0       0       0       0       0       0       0       0       0
  5298 ;;      Temps:          0       0       0       0       0       0       0       0       0
  5299 ;;      Totals:         0       0       0       0       0       0       0       0       0
  5300 ;;Total ram usage:        0 bytes
  5301 ;; Hardware stack levels used: 1
  5302 ;; This function calls:
  5303 ;;		Nothing
  5304 ;; This function is called by:
  5305 ;;		_I2C2_Close
  5306 ;; This function uses a non-reentrant model
  5307 ;;
  5308                           
  5309                           	psect	text68
  5310  001364                     __ptext68:
  5311                           	callstack 0
  5312  001364                     _I2C2_MasterClose:
  5313                           	callstack 28
  5314  001364                     
  5315                           ;mcc_generated_files/i2c2_master.c: 654:     I2C2CON0bits.EN = 0;
  5316  001364  013D               	movlb	61	; () banked
  5317  001366  9F5D               	bcf	93,7,b	;volatile
  5318  001368                     
  5319                           ; BSR set to: 61
  5320                           ;mcc_generated_files/i2c2_master.c: 656:     I2C2PIR = 0x00;
  5321  001368  0E00               	movlw	0
  5322  00136A  6F63               	movwf	99,b	;volatile
  5323  00136C                     
  5324                           ; BSR set to: 61
  5325                           ;mcc_generated_files/i2c2_master.c: 658:     I2C2STAT1bits.CLRBF = 1;
  5326  00136C  8562               	bsf	98,2,b	;volatile
  5327  00136E                     
  5328                           ; BSR set to: 61
  5329  00136E  0012               	return		;funcret
  5330  001370                     __end_of_I2C2_MasterClose:
  5331                           	callstack 0
  5332                           
  5333 ;; *************** function _I2C2_MasterClearIrq *****************
  5334 ;; Defined at:
  5335 ;;		line 804 in file "mcc_generated_files/i2c2_master.c"
  5336 ;; Parameters:    Size  Location     Type
  5337 ;;		None
  5338 ;; Auto vars:     Size  Location     Type
  5339 ;;		None
  5340 ;; Return value:  Size  Location     Type
  5341 ;;                  1    wreg      void 
  5342 ;; Registers used:
  5343 ;;		wreg, status,2
  5344 ;; Tracked objects:
  5345 ;;		On entry : 0/0
  5346 ;;		On exit  : 0/0
  5347 ;;		Unchanged: 0/0
  5348 ;; Data sizes:     COMRAM   BANK0   BANK1   BANK2   BANK3   BANK4   BANK5   BANK6   BANK7
  5349 ;;      Params:         0       0       0       0       0       0       0       0       0
  5350 ;;      Locals:         0       0       0       0       0       0       0       0       0
  5351 ;;      Temps:          0       0       0       0       0       0       0       0       0
  5352 ;;      Totals:         0       0       0       0       0       0       0       0       0
  5353 ;;Total ram usage:        0 bytes
  5354 ;; Hardware stack levels used: 1
  5355 ;; This function calls:
  5356 ;;		Nothing
  5357 ;; This function is called by:
  5358 ;;		_I2C2_Open
  5359 ;;		_I2C2_Close
  5360 ;;		_I2C2_DO_BUS_COLLISION
  5361 ;; This function uses a non-reentrant model
  5362 ;;
  5363                           
  5364                           	psect	text69
  5365  0013C0                     __ptext69:
  5366                           	callstack 0
  5367  0013C0                     _I2C2_MasterClearIrq:
  5368                           	callstack 28
  5369  0013C0                     
  5370                           ;mcc_generated_files/i2c2_master.c: 806:     I2C2PIR = 0x00;
  5371  0013C0  0E00               	movlw	0
  5372  0013C2  013D               	movlb	61	; () banked
  5373  0013C4  6F63               	movwf	99,b	;volatile
  5374  0013C6                     
  5375                           ; BSR set to: 61
  5376  0013C6  0012               	return		;funcret
  5377  0013C8                     __end_of_I2C2_MasterClearIrq:
  5378                           	callstack 0
  5379                           
  5380                           	psect	text70
  5381  000000                     __ptext70:
  5382                           	callstack 0
  5383  000000                     
  5384                           	psect	rparam
  5385  0000                     
  5386                           	psect	idloc
  5387                           
  5388                           ;Config register IDLOC0 @ 0x200000
  5389                           ;	unspecified, using default values
  5390  200000                     	org	2097152
  5391  200000  0FFF               	dw	4095
  5392                           
  5393                           ;Config register IDLOC1 @ 0x200002
  5394                           ;	unspecified, using default values
  5395  200002                     	org	2097154
  5396  200002  0FFF               	dw	4095
  5397                           
  5398                           ;Config register IDLOC2 @ 0x200004
  5399                           ;	unspecified, using default values
  5400  200004                     	org	2097156
  5401  200004  0FFF               	dw	4095
  5402                           
  5403                           ;Config register IDLOC3 @ 0x200006
  5404                           ;	unspecified, using default values
  5405  200006                     	org	2097158
  5406  200006  0FFF               	dw	4095
  5407                           
  5408                           ;Config register IDLOC4 @ 0x200008
  5409                           ;	unspecified, using default values
  5410  200008                     	org	2097160
  5411  200008  0FFF               	dw	4095
  5412                           
  5413                           ;Config register IDLOC5 @ 0x20000A
  5414                           ;	unspecified, using default values
  5415  20000A                     	org	2097162
  5416  20000A  0FFF               	dw	4095
  5417                           
  5418                           ;Config register IDLOC6 @ 0x20000C
  5419                           ;	unspecified, using default values
  5420  20000C                     	org	2097164
  5421  20000C  0FFF               	dw	4095
  5422                           
  5423                           ;Config register IDLOC7 @ 0x20000E
  5424                           ;	unspecified, using default values
  5425  20000E                     	org	2097166
  5426  20000E  0FFF               	dw	4095
  5427                           
  5428                           	psect	config
  5429                           
  5430                           ;Config register CONFIG1L @ 0x300000
  5431                           ;	External Oscillator Selection
  5432                           ;	FEXTOSC = OFF, Oscillator not enabled
  5433                           ;	Reset Oscillator Selection
  5434                           ;	RSTOSC = HFINTOSC_64MHZ, HFINTOSC with HFFRQ = 64 MHz and CDIV = 1:1
  5435  300000                     	org	3145728
  5436  300000  8C                 	db	140
  5437                           
  5438                           ;Config register CONFIG1H @ 0x300001
  5439                           ;	Clock out Enable bit
  5440                           ;	CLKOUTEN = OFF, CLKOUT function is disabled
  5441                           ;	PRLOCKED One-Way Set Enable bit
  5442                           ;	PR1WAY = ON, PRLOCK bit can be cleared and set only once
  5443                           ;	Clock Switch Enable bit
  5444                           ;	CSWEN = ON, Writing to NOSC and NDIV is allowed
  5445                           ;	Fail-Safe Clock Monitor Enable bit
  5446                           ;	FCMEN = ON, Fail-Safe Clock Monitor enabled
  5447  300001                     	org	3145729
  5448  300001  FF                 	db	255
  5449                           
  5450                           ;Config register CONFIG2L @ 0x300002
  5451                           ;	MCLR Enable bit
  5452                           ;	MCLRE = EXTMCLR, If LVP = 0, MCLR pin is MCLR; If LVP = 1, RE3 pin function is MCLR
  5453                           ;	Power-up timer selection bits
  5454                           ;	PWRTS = PWRT_OFF, PWRT is disabled
  5455                           ;	Multi-vector enable bit
  5456                           ;	MVECEN = OFF, Interrupt contoller does not use vector table to prioritze interrupts
  5457                           ;	IVTLOCK bit One-way set enable bit
  5458                           ;	IVT1WAY = ON, IVTLOCK bit can be cleared and set only once
  5459                           ;	Low Power BOR Enable bit
  5460                           ;	LPBOREN = OFF, ULPBOR disabled
  5461                           ;	Brown-out Reset Enable bits
  5462                           ;	BOREN = SBORDIS, Brown-out Reset enabled , SBOREN bit is ignored
  5463  300002                     	org	3145730
  5464  300002  F7                 	db	247
  5465                           
  5466                           ;Config register CONFIG2H @ 0x300003
  5467                           ;	Brown-out Reset Voltage Selection bits
  5468                           ;	BORV = VBOR_2P45, Brown-out Reset Voltage (VBOR) set to 2.45V
  5469                           ;	ZCD Disable bit
  5470                           ;	ZCD = OFF, ZCD disabled. ZCD can be enabled by setting the ZCDSEN bit of ZCDCON
  5471                           ;	PPSLOCK bit One-Way Set Enable bit
  5472                           ;	PPS1WAY = ON, PPSLOCK bit can be cleared and set only once; PPS registers remain locke
      +                          d after one clear/set cycle
  5473                           ;	Stack Full/Underflow Reset Enable bit
  5474                           ;	STVREN = ON, Stack full/underflow will cause Reset
  5475                           ;	Debugger Enable bit
  5476                           ;	DEBUG = OFF, Background debugger disabled
  5477                           ;	Extended Instruction Set Enable bit
  5478                           ;	XINST = OFF, Extended Instruction Set and Indexed Addressing Mode disabled
  5479  300003                     	org	3145731
  5480  300003  FF                 	db	255
  5481                           
  5482                           ;Config register CONFIG3L @ 0x300004
  5483                           ;	WDT Period selection bits
  5484                           ;	WDTCPS = WDTCPS_31, Divider ratio 1:65536; software control of WDTPS
  5485                           ;	WDT operating mode
  5486                           ;	WDTE = OFF, WDT Disabled; SWDTEN is ignored
  5487  300004                     	org	3145732
  5488  300004  9F                 	db	159
  5489                           
  5490                           ;Config register CONFIG3H @ 0x300005
  5491                           ;	WDT Window Select bits
  5492                           ;	WDTCWS = WDTCWS_7, window always open (100%); software control; keyed access not requi
      +                          red
  5493                           ;	WDT input clock selector
  5494                           ;	WDTCCS = SC, Software Control
  5495  300005                     	org	3145733
  5496  300005  FF                 	db	255
  5497                           
  5498                           ;Config register CONFIG4L @ 0x300006
  5499                           ;	Boot Block Size selection bits
  5500                           ;	BBSIZE = BBSIZE_512, Boot Block size is 512 words
  5501                           ;	Boot Block enable bit
  5502                           ;	BBEN = OFF, Boot block disabled
  5503                           ;	Storage Area Flash enable bit
  5504                           ;	SAFEN = OFF, SAF disabled
  5505                           ;	Application Block write protection bit
  5506                           ;	WRTAPP = OFF, Application Block not write protected
  5507  300006                     	org	3145734
  5508  300006  FF                 	db	255
  5509                           
  5510                           ;Config register CONFIG4H @ 0x300007
  5511                           ;	Configuration Register Write Protection bit
  5512                           ;	WRTB = OFF, Configuration registers (300000-30000Bh) not write-protected
  5513                           ;	Boot Block Write Protection bit
  5514                           ;	WRTC = OFF, Boot Block (000000-0007FFh) not write-protected
  5515                           ;	Data EEPROM Write Protection bit
  5516                           ;	WRTD = OFF, Data EEPROM not write-protected
  5517                           ;	SAF Write protection bit
  5518                           ;	WRTSAF = OFF, SAF not Write Protected
  5519                           ;	Low Voltage Programming Enable bit
  5520                           ;	LVP = ON, Low voltage programming enabled. MCLR/VPP pin function is MCLR. MCLRE config
      +                          uration bit is ignored
  5521  300007                     	org	3145735
  5522  300007  FF                 	db	255
  5523                           
  5524                           ;Config register CONFIG5L @ 0x300008
  5525                           ;	PFM and Data EEPROM Code Protection bit
  5526                           ;	CP = OFF, PFM and Data EEPROM code protection disabled
  5527  300008                     	org	3145736
  5528  300008  FF                 	db	255
  5529                           
  5530                           ;Config register CONFIG5H @ 0x300009
  5531                           ;	unspecified, using default values
  5532  300009                     	org	3145737
  5533  300009  FF                 	db	255
  5534                           tosu	equ	0x3FFF
  5535                           tosh	equ	0x3FFE
  5536                           tosl	equ	0x3FFD
  5537                           stkptr	equ	0x3FFC
  5538                           pclatu	equ	0x3FFB
  5539                           pclath	equ	0x3FFA
  5540                           pcl	equ	0x3FF9
  5541                           tblptru	equ	0x3FF8
  5542                           tblptrh	equ	0x3FF7
  5543                           tblptrl	equ	0x3FF6
  5544                           tablat	equ	0x3FF5
  5545                           prodh	equ	0x3FF4
  5546                           prodl	equ	0x3FF3
  5547                           indf0	equ	0x3FEF
  5548                           postinc0	equ	0x3FEE
  5549                           postdec0	equ	0x3FED
  5550                           preinc0	equ	0x3FEC
  5551                           plusw0	equ	0x3FEB
  5552                           fsr0h	equ	0x3FEA
  5553                           fsr0l	equ	0x3FE9
  5554                           wreg	equ	0x3FE8
  5555                           indf1	equ	0x3FE7
  5556                           postinc1	equ	0x3FE6
  5557                           postdec1	equ	0x3FE5
  5558                           preinc1	equ	0x3FE4
  5559                           plusw1	equ	0x3FE3
  5560                           fsr1h	equ	0x3FE2
  5561                           fsr1l	equ	0x3FE1
  5562                           bsr	equ	0x3FE0
  5563                           indf2	equ	0x3FDF
  5564                           postinc2	equ	0x3FDE
  5565                           postdec2	equ	0x3FDD
  5566                           preinc2	equ	0x3FDC
  5567                           plusw2	equ	0x3FDB
  5568                           fsr2h	equ	0x3FDA
  5569                           fsr2l	equ	0x3FD9
  5570                           status	equ	0x3FD8

Data Sizes:
    Strings     0
    Constant    38
    Data        6
    BSS         44
    Persistent  0
    Stack       0

Auto Spaces:
    Space          Size  Autos    Used
    COMRAM           95     26      76
    BANK0           160      0       0
    BANK1           256      0       0
    BANK2           256      0       0
    BANK3           256      0       0
    BANK4           256      0       0
    BANK5           256      0       0
    BANK6           256      0       0
    BANK7           256      0       0

Pointer List with Targets:

    I2C2_Read1ByteRegister@returnValue.data	PTR unsigned char  size(2) Largest target is 0

    I2C2_Read2ByteRegister@returnValue.data	PTR unsigned char  size(2) Largest target is 0

    I2C2_Write1ByteRegister@data.data	PTR unsigned char  size(2) Largest target is 0

    I2C2_Write2ByteRegister@data.data	PTR unsigned char  size(2) Largest target is 0

    I2C2_DO_TX$1781$0	PTR void  size(2) Largest target is 5
		 -> I2C2_ReadDataBlock@bufferBlock(COMRAM[4]), I2C2_Write2ByteRegister@data(COMRAM[2]), I2C2_Write1ByteRegister@data(COMRAM[1]), I2C2_Read2ByteRegister@returnValue(COMRAM[2]), 
		 -> NULL(NULL[0]), I2C2_Read1ByteRegister@returnValue(COMRAM[1]), 

    I2C2_DO_TX_EMPTY$1787$0	PTR void  size(2) Largest target is 5
		 -> I2C2_ReadDataBlock@bufferBlock(COMRAM[4]), I2C2_Write2ByteRegister@data(COMRAM[2]), I2C2_Write1ByteRegister@data(COMRAM[1]), I2C2_Read2ByteRegister@returnValue(COMRAM[2]), 
		 -> NULL(NULL[0]), I2C2_Read1ByteRegister@returnValue(COMRAM[1]), 

    I2C2_DO_RX_EMPTY$1793$0	PTR void  size(2) Largest target is 5
		 -> I2C2_ReadDataBlock@bufferBlock(COMRAM[4]), I2C2_Write2ByteRegister@data(COMRAM[2]), I2C2_Write1ByteRegister@data(COMRAM[1]), I2C2_Read2ByteRegister@returnValue(COMRAM[2]), 
		 -> NULL(NULL[0]), I2C2_Read1ByteRegister@returnValue(COMRAM[1]), 

    I2C2_DO_RX_EMPTY$1798	PTR void  size(2) Largest target is 5
		 -> I2C2_ReadDataBlock@bufferBlock(COMRAM[4]), I2C2_Write2ByteRegister@data(COMRAM[2]), I2C2_Write1ByteRegister@data(COMRAM[1]), I2C2_Read2ByteRegister@returnValue(COMRAM[2]), 
		 -> NULL(NULL[0]), I2C2_Read1ByteRegister@returnValue(COMRAM[1]), 

    I2C2_DO_RX_EMPTY$1793	PTR FTN(PTR void ,)enum E360 size(2) Largest target is 1
		 -> I2C2_CallbackReturnReset(), I2C2_CallbackReturnStop(), Absolute function(), rdBlkRegCompleteHandler(), 
		 -> wr2RegCompleteHandler(), wr1RegCompleteHandler(), rd2RegCompleteHandler(), rd1RegCompleteHandler(), 

    I2C2_DO_TX_EMPTY$1792	PTR void  size(2) Largest target is 5
		 -> I2C2_ReadDataBlock@bufferBlock(COMRAM[4]), I2C2_Write2ByteRegister@data(COMRAM[2]), I2C2_Write1ByteRegister@data(COMRAM[1]), I2C2_Read2ByteRegister@returnValue(COMRAM[2]), 
		 -> NULL(NULL[0]), I2C2_Read1ByteRegister@returnValue(COMRAM[1]), 

    I2C2_DO_TX_EMPTY$1787	PTR FTN(PTR void ,)enum E360 size(2) Largest target is 1
		 -> I2C2_CallbackReturnReset(), I2C2_CallbackReturnStop(), Absolute function(), rdBlkRegCompleteHandler(), 
		 -> wr2RegCompleteHandler(), wr1RegCompleteHandler(), rd2RegCompleteHandler(), rd1RegCompleteHandler(), 

    I2C2_DO_TX$1786	PTR void  size(2) Largest target is 5
		 -> I2C2_ReadDataBlock@bufferBlock(COMRAM[4]), I2C2_Write2ByteRegister@data(COMRAM[2]), I2C2_Write1ByteRegister@data(COMRAM[1]), I2C2_Read2ByteRegister@returnValue(COMRAM[2]), 
		 -> NULL(NULL[0]), I2C2_Read1ByteRegister@returnValue(COMRAM[1]), 

    I2C2_DO_TX$1781	PTR FTN(PTR void ,)enum E360 size(2) Largest target is 1
		 -> I2C2_CallbackReturnReset(), I2C2_CallbackReturnStop(), Absolute function(), rdBlkRegCompleteHandler(), 
		 -> wr2RegCompleteHandler(), wr1RegCompleteHandler(), rd2RegCompleteHandler(), rd1RegCompleteHandler(), 

    I2C2_MasterFsm$1780	const PTR FTN()enum E22984 size(2) Largest target is 1
		 -> I2C2_DO_BUS_ERROR(), I2C2_DO_BUS_COLLISION(), I2C2_DO_ADDRESS_NACK(), I2C2_DO_RESET(), 
		 -> I2C2_DO_RX_NACK_RESTART(), I2C2_DO_RX_NACK_STOP(), I2C2_DO_TX_ACK(), I2C2_DO_RX_ACK(), 
		 -> I2C2_DO_SEND_STOP(), I2C2_DO_SEND_RESTART(), I2C2_DO_SEND_RESTART_WRITE(), I2C2_DO_SEND_RESTART_READ(), 
		 -> I2C2_DO_RX_EMPTY(), I2C2_DO_TX_EMPTY(), I2C2_DO_RX(), I2C2_DO_TX(), 
		 -> I2C2_DO_SEND_ADR_WRITE(), I2C2_DO_SEND_ADR_READ(), I2C2_DO_IDLE(), 

    I2C2_CallbackReturnStop@funPtr	PTR void  size(2) Largest target is 5
		 -> I2C2_ReadDataBlock@bufferBlock(COMRAM[4]), I2C2_Write2ByteRegister@data(COMRAM[2]), I2C2_Write1ByteRegister@data(COMRAM[1]), I2C2_Read2ByteRegister@returnValue(COMRAM[2]), 
		 -> NULL(NULL[0]), I2C2_Read1ByteRegister@returnValue(COMRAM[1]), 

    I2C2_CallbackReturnReset@funPtr	PTR void  size(2) Largest target is 5
		 -> I2C2_ReadDataBlock@bufferBlock(COMRAM[4]), I2C2_Write2ByteRegister@data(COMRAM[2]), I2C2_Write1ByteRegister@data(COMRAM[1]), I2C2_Read2ByteRegister@returnValue(COMRAM[2]), 
		 -> NULL(NULL[0]), I2C2_Read1ByteRegister@returnValue(COMRAM[1]), 

    cb$0	PTR void  size(2) Largest target is 5
		 -> I2C2_ReadDataBlock@bufferBlock(COMRAM[4]), I2C2_Write2ByteRegister@data(COMRAM[2]), I2C2_Write1ByteRegister@data(COMRAM[1]), I2C2_Read2ByteRegister@returnValue(COMRAM[2]), 
		 -> NULL(NULL[0]), I2C2_Read1ByteRegister@returnValue(COMRAM[1]), 

    Absolute function$0	PTR void  size(2) Largest target is 5
		 -> I2C2_ReadDataBlock@bufferBlock(COMRAM[4]), I2C2_Write2ByteRegister@data(COMRAM[2]), I2C2_Write1ByteRegister@data(COMRAM[1]), I2C2_Read2ByteRegister@returnValue(COMRAM[2]), 
		 -> NULL(NULL[0]), I2C2_Read1ByteRegister@returnValue(COMRAM[1]), 

    cb$0	PTR void  size(2) Largest target is 5
		 -> I2C2_ReadDataBlock@bufferBlock(COMRAM[4]), I2C2_Write2ByteRegister@data(COMRAM[2]), I2C2_Write1ByteRegister@data(COMRAM[1]), I2C2_Read2ByteRegister@returnValue(COMRAM[2]), 
		 -> NULL(NULL[0]), I2C2_Read1ByteRegister@returnValue(COMRAM[1]), 

    S322$0$0	PTR void  size(2) Largest target is 5
		 -> I2C2_ReadDataBlock@bufferBlock(COMRAM[4]), I2C2_Write2ByteRegister@data(COMRAM[2]), I2C2_Write1ByteRegister@data(COMRAM[1]), I2C2_Read2ByteRegister@returnValue(COMRAM[2]), 
		 -> NULL(NULL[0]), I2C2_Read1ByteRegister@returnValue(COMRAM[1]), 

    I2C2_SetCallback@ptr	PTR void  size(2) Largest target is 5
		 -> I2C2_ReadDataBlock@bufferBlock(COMRAM[4]), I2C2_Write2ByteRegister@data(COMRAM[2]), I2C2_Write1ByteRegister@data(COMRAM[1]), I2C2_Read2ByteRegister@returnValue(COMRAM[2]), 
		 -> NULL(NULL[0]), I2C2_Read1ByteRegister@returnValue(COMRAM[1]), 

    I2C2_SetCallback@cb	PTR FTN(PTR void ,)enum E360 size(2) Largest target is 1
		 -> Absolute function(), rdBlkRegCompleteHandler(), wr2RegCompleteHandler(), wr1RegCompleteHandler(), 
		 -> rd2RegCompleteHandler(), rd1RegCompleteHandler(), 

    I2C2_SetAddressNackCallback@ptr	PTR void  size(2) Largest target is 0
		 -> NULL(NULL[0]), 

    I2C2_SetAddressNackCallback@cb	PTR FTN(PTR void ,)enum E360 size(2) Largest target is 1
		 -> Absolute function(), 

    I2C2_SetDataCompleteCallback@ptr	PTR void  size(2) Largest target is 5
		 -> I2C2_ReadDataBlock@bufferBlock(COMRAM[4]), I2C2_Write2ByteRegister@data(COMRAM[2]), I2C2_Write1ByteRegister@data(COMRAM[1]), I2C2_Read2ByteRegister@returnValue(COMRAM[2]), 
		 -> NULL(NULL[0]), I2C2_Read1ByteRegister@returnValue(COMRAM[1]), 

    I2C2_SetDataCompleteCallback@cb	PTR FTN(PTR void ,)enum E360 size(2) Largest target is 1
		 -> Absolute function(), rdBlkRegCompleteHandler(), wr2RegCompleteHandler(), wr1RegCompleteHandler(), 
		 -> rd2RegCompleteHandler(), rd1RegCompleteHandler(), 

    I2C2_SetBuffer@buffer	PTR void  size(2) Largest target is 6
		 -> I2C2_Read1ByteRegister@returnValue.data(COMRAM[3]), I2C2_Read2ByteRegister@returnValue.data(COMRAM[3]), I2C2_Write1ByteRegister@data.data(COMRAM[3]), I2C2_Write2ByteRegister@data.data(COMRAM[3]), 
		 -> i2c_read_data(COMRAM[4]), i2c_send_data(COMRAM[6]), I2C2_ReadDataBlock@reg(COMRAM[1]), I2C2_ReadDataBlock@bufferBlock(COMRAM[4]), 
		 -> bufferBlock.data(COMRAM[3]), I2C2_Write2ByteRegister@reg(COMRAM[1]), I2C2_Write2ByteRegister@data(COMRAM[2]), I2C2_Write1ByteRegister@reg(COMRAM[1]), 
		 -> I2C2_Write1ByteRegister@data(COMRAM[1]), I2C2_Read2ByteRegister@reg(COMRAM[1]), I2C2_Read2ByteRegister@returnValue(COMRAM[2]), NULL(NULL[0]), 
		 -> I2C2_Read1ByteRegister@reg(COMRAM[1]), I2C2_Read1ByteRegister@returnValue(COMRAM[1]), 

    S322$data_ptr	PTR unsigned char  size(2) Largest target is 6
		 -> i2c_read_data(COMRAM[4]), i2c_send_data(COMRAM[6]), I2C2_ReadDataBlock@reg(COMRAM[1]), I2C2_ReadDataBlock@bufferBlock(COMRAM[4]), 
		 -> I2C2_Write2ByteRegister@reg(COMRAM[1]), I2C2_Write2ByteRegister@data(COMRAM[2]), I2C2_Write1ByteRegister@reg(COMRAM[1]), I2C2_Write1ByteRegister@data(COMRAM[1]), 
		 -> I2C2_Read2ByteRegister@reg(COMRAM[1]), I2C2_Read2ByteRegister@returnValue(COMRAM[2]), NULL(NULL[0]), I2C2_Read1ByteRegister@reg(COMRAM[1]), 
		 -> I2C2_Read1ByteRegister@returnValue(COMRAM[1]), 

    I2C2_Status.data_ptr	PTR unsigned char  size(2) Largest target is 6
		 -> I2C2_Read1ByteRegister@returnValue.data(COMRAM[3]), I2C2_Read2ByteRegister@returnValue.data(COMRAM[3]), I2C2_Write1ByteRegister@data.data(COMRAM[3]), I2C2_Write2ByteRegister@data.data(COMRAM[3]), 
		 -> i2c_read_data(COMRAM[4]), i2c_send_data(COMRAM[6]), I2C2_ReadDataBlock@reg(COMRAM[1]), I2C2_ReadDataBlock@bufferBlock(COMRAM[4]), 
		 -> bufferBlock.data(COMRAM[3]), I2C2_Write2ByteRegister@reg(COMRAM[1]), I2C2_Write2ByteRegister@data(COMRAM[2]), I2C2_Write1ByteRegister@reg(COMRAM[1]), 
		 -> I2C2_Write1ByteRegister@data(COMRAM[1]), I2C2_Read2ByteRegister@reg(COMRAM[1]), I2C2_Read2ByteRegister@returnValue(COMRAM[2]), NULL(NULL[0]), 
		 -> I2C2_Read1ByteRegister@reg(COMRAM[1]), I2C2_Read1ByteRegister@returnValue(COMRAM[1]), 

    S322$callbackPayload	PTR void [6] size(2) Largest target is 5
		 -> I2C2_ReadDataBlock@bufferBlock(COMRAM[4]), I2C2_Write2ByteRegister@data(COMRAM[2]), I2C2_Write1ByteRegister@data(COMRAM[1]), I2C2_Read2ByteRegister@returnValue(COMRAM[2]), 
		 -> NULL(NULL[0]), I2C2_Read1ByteRegister@returnValue(COMRAM[1]), 

    I2C2_Status.callbackPayload	PTR void [6] size(2) Largest target is 5
		 -> I2C2_ReadDataBlock@bufferBlock(COMRAM[4]), I2C2_Write2ByteRegister@data(COMRAM[2]), I2C2_Write1ByteRegister@data(COMRAM[1]), I2C2_Read2ByteRegister@returnValue(COMRAM[2]), 
		 -> NULL(NULL[0]), I2C2_Read1ByteRegister@returnValue(COMRAM[1]), 

    S322$callbackTable	PTR FTN(PTR void ,)enum E360[6] size(2) Largest target is 1
		 -> I2C2_CallbackReturnReset(), I2C2_CallbackReturnStop(), Absolute function(), rdBlkRegCompleteHandler(), 
		 -> wr2RegCompleteHandler(), wr1RegCompleteHandler(), rd2RegCompleteHandler(), rd1RegCompleteHandler(), 

    I2C2_Status.callbackTable	PTR FTN(PTR void ,)enum E360[6] size(2) Largest target is 1
		 -> I2C2_CallbackReturnReset(), I2C2_CallbackReturnStop(), Absolute function(), rdBlkRegCompleteHandler(), 
		 -> wr2RegCompleteHandler(), wr1RegCompleteHandler(), rd2RegCompleteHandler(), rd1RegCompleteHandler(), 

    i2c2_fsmStateTable	const PTR FTN()enum E22984[19] size(2) Largest target is 1
		 -> I2C2_DO_BUS_ERROR(), I2C2_DO_BUS_COLLISION(), I2C2_DO_ADDRESS_NACK(), I2C2_DO_RESET(), 
		 -> I2C2_DO_RX_NACK_RESTART(), I2C2_DO_RX_NACK_STOP(), I2C2_DO_TX_ACK(), I2C2_DO_RX_ACK(), 
		 -> I2C2_DO_SEND_STOP(), I2C2_DO_SEND_RESTART(), I2C2_DO_SEND_RESTART_WRITE(), I2C2_DO_SEND_RESTART_READ(), 
		 -> I2C2_DO_RX_EMPTY(), I2C2_DO_TX_EMPTY(), I2C2_DO_RX(), I2C2_DO_TX(), 
		 -> I2C2_DO_SEND_ADR_WRITE(), I2C2_DO_SEND_ADR_READ(), I2C2_DO_IDLE(), 

    rdBlkRegCompleteHandler@ptr.data	PTR unsigned char  size(2) Largest target is 0

    rdBlkRegCompleteHandler@ptr	PTR void  size(2) Largest target is 5
		 -> I2C2_ReadDataBlock@bufferBlock(COMRAM[4]), I2C2_Write2ByteRegister@data(COMRAM[2]), I2C2_Write1ByteRegister@data(COMRAM[1]), I2C2_Read2ByteRegister@returnValue(COMRAM[2]), 
		 -> NULL(NULL[0]), I2C2_Read1ByteRegister@returnValue(COMRAM[1]), 

    wr2RegCompleteHandler@ptr	PTR void  size(2) Largest target is 5
		 -> I2C2_ReadDataBlock@bufferBlock(COMRAM[4]), I2C2_Write2ByteRegister@data(COMRAM[2]), I2C2_Write1ByteRegister@data(COMRAM[1]), I2C2_Read2ByteRegister@returnValue(COMRAM[2]), 
		 -> NULL(NULL[0]), I2C2_Read1ByteRegister@returnValue(COMRAM[1]), 

    wr1RegCompleteHandler@ptr	PTR void  size(2) Largest target is 5
		 -> I2C2_ReadDataBlock@bufferBlock(COMRAM[4]), I2C2_Write2ByteRegister@data(COMRAM[2]), I2C2_Write1ByteRegister@data(COMRAM[1]), I2C2_Read2ByteRegister@returnValue(COMRAM[2]), 
		 -> NULL(NULL[0]), I2C2_Read1ByteRegister@returnValue(COMRAM[1]), 

    rd2RegCompleteHandler@ptr	PTR void  size(2) Largest target is 5
		 -> I2C2_ReadDataBlock@bufferBlock(COMRAM[4]), I2C2_Write2ByteRegister@data(COMRAM[2]), I2C2_Write1ByteRegister@data(COMRAM[1]), I2C2_Read2ByteRegister@returnValue(COMRAM[2]), 
		 -> NULL(NULL[0]), I2C2_Read1ByteRegister@returnValue(COMRAM[1]), 

    rd1RegCompleteHandler@ptr	PTR void  size(2) Largest target is 5
		 -> I2C2_ReadDataBlock@bufferBlock(COMRAM[4]), I2C2_Write2ByteRegister@data(COMRAM[2]), I2C2_Write1ByteRegister@data(COMRAM[1]), I2C2_Read2ByteRegister@returnValue(COMRAM[2]), 
		 -> NULL(NULL[0]), I2C2_Read1ByteRegister@returnValue(COMRAM[1]), 

    S96$data	PTR unsigned char  size(2) Largest target is 0

    bufferBlock.data	PTR unsigned char  size(2) Largest target is 0

    I2C2_ReadNBytes@data	PTR unsigned char  size(2) Largest target is 4
		 -> i2c_read_data(COMRAM[4]), 

    I2C2_WriteNBytes@data	PTR unsigned char  size(2) Largest target is 6
		 -> i2c_send_data(COMRAM[6]), 


Critical Paths under _main in COMRAM

    _main->_I2C2_ReadNBytes
    _main->_I2C2_WriteNBytes
    _I2C2_SetAddressNackCallback->_I2C2_SetCallback
    _I2C2_MasterWrite->_I2C2_MasterOperation
    _I2C2_MasterRead->_I2C2_MasterOperation
    _I2C2_MasterFsm->_I2C2_DO_TX
    _I2C2_DO_TX->_I2C2_CallbackReturnReset
    _I2C2_DO_TX->_I2C2_CallbackReturnStop
    _I2C2_DO_TX->_rd1RegCompleteHandler
    _I2C2_DO_TX->_rd2RegCompleteHandler
    _I2C2_DO_TX->_rdBlkRegCompleteHandler
    _I2C2_DO_TX->_wr1RegCompleteHandler
    _I2C2_DO_TX->_wr2RegCompleteHandler
    _I2C2_DO_TX_EMPTY->_I2C2_CallbackReturnReset
    _I2C2_DO_TX_EMPTY->_I2C2_CallbackReturnStop
    _I2C2_DO_TX_EMPTY->_rd1RegCompleteHandler
    _I2C2_DO_TX_EMPTY->_rd2RegCompleteHandler
    _I2C2_DO_TX_EMPTY->_rdBlkRegCompleteHandler
    _I2C2_DO_TX_EMPTY->_wr1RegCompleteHandler
    _I2C2_DO_TX_EMPTY->_wr2RegCompleteHandler
    _I2C2_DO_SEND_STOP->_I2C2_MasterSendTxData
    _I2C2_DO_SEND_STOP->_I2C2_MasterSetCounter
    _I2C2_DO_RX->_I2C2_DO_RX_EMPTY
    _I2C2_DO_BUS_COLLISION->_I2C2_CallbackReturnReset
    _I2C2_DO_BUS_COLLISION->_I2C2_CallbackReturnStop
    _I2C2_DO_BUS_COLLISION->_rd1RegCompleteHandler
    _I2C2_DO_BUS_COLLISION->_rd2RegCompleteHandler
    _I2C2_DO_BUS_COLLISION->_rdBlkRegCompleteHandler
    _I2C2_DO_BUS_COLLISION->_wr1RegCompleteHandler
    _I2C2_DO_BUS_COLLISION->_wr2RegCompleteHandler
    _I2C2_DO_SEND_RESTART_READ->_I2C2_MasterSetCounter
    _I2C2_DO_RX_EMPTY->_I2C2_CallbackReturnReset
    _I2C2_DO_RX_EMPTY->_I2C2_CallbackReturnStop
    _I2C2_DO_RX_EMPTY->_rd1RegCompleteHandler
    _I2C2_DO_RX_EMPTY->_rd2RegCompleteHandler
    _I2C2_DO_RX_EMPTY->_rdBlkRegCompleteHandler
    _I2C2_DO_RX_EMPTY->_wr1RegCompleteHandler
    _I2C2_DO_RX_EMPTY->_wr2RegCompleteHandler
    _I2C2_DO_ADDRESS_NACK->_I2C2_CallbackReturnReset
    _I2C2_DO_ADDRESS_NACK->_I2C2_CallbackReturnStop
    _I2C2_DO_ADDRESS_NACK->_rd1RegCompleteHandler
    _I2C2_DO_ADDRESS_NACK->_rd2RegCompleteHandler
    _I2C2_DO_ADDRESS_NACK->_rdBlkRegCompleteHandler
    _I2C2_DO_ADDRESS_NACK->_wr1RegCompleteHandler
    _I2C2_DO_ADDRESS_NACK->_wr2RegCompleteHandler
    _wr2RegCompleteHandler->_I2C2_SetDataCompleteCallback
    _wr1RegCompleteHandler->_I2C2_SetDataCompleteCallback
    _rdBlkRegCompleteHandler->_I2C2_SetDataCompleteCallback
    _rd2RegCompleteHandler->_I2C2_SetDataCompleteCallback
    _rd1RegCompleteHandler->_I2C2_SetDataCompleteCallback
    _I2C2_SetDataCompleteCallback->_I2C2_SetCallback

Critical Paths under _main in BANK0

    None.

Critical Paths under _main in BANK1

    None.

Critical Paths under _main in BANK2

    None.

Critical Paths under _main in BANK3

    None.

Critical Paths under _main in BANK4

    None.

Critical Paths under _main in BANK5

    None.

Critical Paths under _main in BANK6

    None.

Critical Paths under _main in BANK7

    None.

Call Graph Tables:

 ---------------------------------------------------------------------------------
 (Depth) Function   	        Calls       Base Space   Used Autos Params    Refs
 ---------------------------------------------------------------------------------
 (0) _main                                                 2     2      0  538502
                                             24 COMRAM     2     2      0
                    _I2C2_ReadNBytes
                   _I2C2_WriteNBytes
                  _SYSTEM_Initialize
 ---------------------------------------------------------------------------------
 (1) _SYSTEM_Initialize                                    0     0      0       0
                    _I2C2_Initialize
              _OSCILLATOR_Initialize
             _PIN_MANAGER_Initialize
                     _PMD_Initialize
 ---------------------------------------------------------------------------------
 (2) _PMD_Initialize                                       0     0      0       0
 ---------------------------------------------------------------------------------
 (2) _PIN_MANAGER_Initialize                               0     0      0       0
 ---------------------------------------------------------------------------------
 (2) _OSCILLATOR_Initialize                                0     0      0       0
 ---------------------------------------------------------------------------------
 (2) _I2C2_Initialize                                      0     0      0       0
 ---------------------------------------------------------------------------------
 (1) _I2C2_WriteNBytes                                     5     1      4  270186
                                             19 COMRAM     5     1      4
                         _I2C2_Close
                   _I2C2_MasterWrite
                          _I2C2_Open
        _I2C2_SetAddressNackCallback
                     _I2C2_SetBuffer
 ---------------------------------------------------------------------------------
 (2) _I2C2_SetAddressNackCallback                          4     0      4    1870
                                              5 COMRAM     4     0      4
                   _I2C2_SetCallback
 ---------------------------------------------------------------------------------
 (2) _I2C2_MasterWrite                                     0     0      0  266169
               _I2C2_MasterOperation
 ---------------------------------------------------------------------------------
 (1) _I2C2_ReadNBytes                                      5     1      4  268316
                                             19 COMRAM     5     1      4
                         _I2C2_Close
                    _I2C2_MasterRead
                          _I2C2_Open
                     _I2C2_SetBuffer
 ---------------------------------------------------------------------------------
 (2) _I2C2_Open                                            2     2      0      46
                                              0 COMRAM     2     2      0
                _I2C2_MasterClearIrq
                    _I2C2_MasterOpen
 ---------------------------------------------------------------------------------
 (3) _I2C2_MasterOpen                                      0     0      0       0
 ---------------------------------------------------------------------------------
 (2) _I2C2_MasterRead                                      0     0      0  266169
               _I2C2_MasterOperation
 ---------------------------------------------------------------------------------
 (3) _I2C2_MasterOperation                                 2     2      0  266169
                                             17 COMRAM     2     2      0
              _I2C2_DO_SEND_ADR_READ
             _I2C2_DO_SEND_ADR_WRITE
              _I2C2_MasterSetCounter
                        _I2C2_Poller
 ---------------------------------------------------------------------------------
 (4) _I2C2_Poller                                          0     0      0  243908
                     _I2C2_MasterFsm
            _I2C2_MasterWaitForEvent
 ---------------------------------------------------------------------------------
 (5) _I2C2_MasterWaitForEvent                              0     0      0       0
 ---------------------------------------------------------------------------------
 (5) _I2C2_MasterFsm                                       0     0      0  243908
           _I2C2_ClearInterruptFlags
               _I2C2_DO_ADDRESS_NACK *
              _I2C2_DO_BUS_COLLISION *
                  _I2C2_DO_BUS_ERROR *
                       _I2C2_DO_IDLE *
                      _I2C2_DO_RESET *
                         _I2C2_DO_RX *
                     _I2C2_DO_RX_ACK *
                   _I2C2_DO_RX_EMPTY *
            _I2C2_DO_RX_NACK_RESTART *
               _I2C2_DO_RX_NACK_STOP *
              _I2C2_DO_SEND_ADR_READ *
             _I2C2_DO_SEND_ADR_WRITE *
               _I2C2_DO_SEND_RESTART *
          _I2C2_DO_SEND_RESTART_READ *
         _I2C2_DO_SEND_RESTART_WRITE *
                  _I2C2_DO_SEND_STOP *
                         _I2C2_DO_TX *
                     _I2C2_DO_TX_ACK *
                   _I2C2_DO_TX_EMPTY *
                  _I2C2_MasterIsNack
 ---------------------------------------------------------------------------------
 (6) _I2C2_DO_TX_ACK                                       0     0      0       0
                 _I2C2_MasterSendAck
 ---------------------------------------------------------------------------------
 (6) _I2C2_DO_TX                                           6     6      0   66561
                                             11 COMRAM     6     6      0
                   Absolute function *
           _I2C2_CallbackReturnReset *
            _I2C2_CallbackReturnStop *
          _I2C2_DO_SEND_RESTART_READ
         _I2C2_DO_SEND_RESTART_WRITE
                   _I2C2_DO_TX_EMPTY
                  _I2C2_MasterIsNack
            _I2C2_MasterIsTxBufEmpty
              _I2C2_MasterSendTxData
              _rd1RegCompleteHandler *
              _rd2RegCompleteHandler *
            _rdBlkRegCompleteHandler *
              _wr1RegCompleteHandler *
              _wr2RegCompleteHandler *
 ---------------------------------------------------------------------------------
 (7) _I2C2_MasterIsTxBufEmpty                              0     0      0       0
 ---------------------------------------------------------------------------------
 (6) _I2C2_MasterIsNack                                    0     0      0       0
 ---------------------------------------------------------------------------------
 (6) _I2C2_DO_TX_EMPTY                                     2     2      0   22149
                                             11 COMRAM     2     2      0
                   Absolute function *
           _I2C2_CallbackReturnReset *
            _I2C2_CallbackReturnStop *
          _I2C2_MasterDisableRestart
           _I2C2_MasterEnableRestart
              _I2C2_MasterSetCounter
              _rd1RegCompleteHandler *
              _rd2RegCompleteHandler *
            _rdBlkRegCompleteHandler *
              _wr1RegCompleteHandler *
              _wr2RegCompleteHandler *
 ---------------------------------------------------------------------------------
 (6) _I2C2_DO_SEND_STOP                                    0     0      0      44
              _I2C2_MasterGetCounter
              _I2C2_MasterSendTxData
              _I2C2_MasterSetCounter
                    _I2C2_MasterStop
 ---------------------------------------------------------------------------------
 (7) _I2C2_MasterGetCounter                                0     0      0       0
 ---------------------------------------------------------------------------------
 (6) _I2C2_DO_SEND_ADR_WRITE                               0     0      0      22
              _I2C2_MasterSendTxData
 ---------------------------------------------------------------------------------
 (6) _I2C2_DO_RX_NACK_STOP                                 0     0      0       0
                       _I2C2_DO_IDLE
                _I2C2_MasterSendNack
                    _I2C2_MasterStop
 ---------------------------------------------------------------------------------
 (7) _I2C2_MasterStop                                      0     0      0       0
 ---------------------------------------------------------------------------------
 (7) _I2C2_DO_IDLE                                         0     0      0       0
 ---------------------------------------------------------------------------------
 (6) _I2C2_DO_RX_NACK_RESTART                              0     0      0       0
                _I2C2_MasterSendNack
 ---------------------------------------------------------------------------------
 (7) _I2C2_MasterSendNack                                  0     0      0       0
 ---------------------------------------------------------------------------------
 (6) _I2C2_DO_RX_ACK                                       0     0      0       0
                 _I2C2_MasterSendAck
 ---------------------------------------------------------------------------------
 (7) _I2C2_MasterSendAck                                   0     0      0       0
 ---------------------------------------------------------------------------------
 (6) _I2C2_DO_RX                                           3     3      0   22172
                                             13 COMRAM     3     3      0
                   _I2C2_DO_RX_EMPTY
               _I2C2_MasterGetRxData
             _I2C2_MasterIsRxBufFull
 ---------------------------------------------------------------------------------
 (7) _I2C2_MasterIsRxBufFull                               0     0      0       0
 ---------------------------------------------------------------------------------
 (7) _I2C2_MasterGetRxData                                 0     0      0       0
 ---------------------------------------------------------------------------------
 (6) _I2C2_DO_BUS_ERROR                                    0     0      0       0
                _I2C2_MasterResetBus
 ---------------------------------------------------------------------------------
 (6) _I2C2_DO_BUS_COLLISION                                2     2      0   44320
                                             11 COMRAM     2     2      0
                   Absolute function *
           _I2C2_CallbackReturnReset *
            _I2C2_CallbackReturnStop *
                      _I2C2_DO_RESET
          _I2C2_DO_SEND_RESTART_READ
         _I2C2_DO_SEND_RESTART_WRITE
                _I2C2_MasterClearIrq
              _rd1RegCompleteHandler *
              _rd2RegCompleteHandler *
            _rdBlkRegCompleteHandler *
              _wr1RegCompleteHandler *
              _wr2RegCompleteHandler *
 ---------------------------------------------------------------------------------
 (7) _I2C2_DO_SEND_RESTART_WRITE                           0     0      0       0
 ---------------------------------------------------------------------------------
 (7) _I2C2_DO_SEND_RESTART_READ                            0     0      0   22193
              _I2C2_DO_SEND_ADR_READ
              _I2C2_MasterSetCounter
 ---------------------------------------------------------------------------------
 (8) _I2C2_DO_SEND_ADR_READ                                0     0      0   22171
                   _I2C2_DO_RX_EMPTY
              _I2C2_MasterSendTxData
 ---------------------------------------------------------------------------------
 (7) _I2C2_MasterSendTxData                                1     1      0      22
                                              0 COMRAM     1     1      0
 ---------------------------------------------------------------------------------
 (9) _I2C2_DO_RX_EMPTY                                     2     2      0   22149
                                             11 COMRAM     2     2      0
                   Absolute function *
           _I2C2_CallbackReturnReset *
            _I2C2_CallbackReturnStop *
          _I2C2_MasterDisableRestart
           _I2C2_MasterEnableRestart
              _I2C2_MasterSetCounter
              _rd1RegCompleteHandler *
              _rd2RegCompleteHandler *
            _rdBlkRegCompleteHandler *
              _wr1RegCompleteHandler *
              _wr2RegCompleteHandler *
 ---------------------------------------------------------------------------------
 (7) _I2C2_MasterSetCounter                                1     1      0      22
                                              0 COMRAM     1     1      0
 ---------------------------------------------------------------------------------
 (7) _I2C2_MasterEnableRestart                             0     0      0       0
 ---------------------------------------------------------------------------------
 (7) _I2C2_MasterDisableRestart                            0     0      0       0
 ---------------------------------------------------------------------------------
 (6) _I2C2_DO_RESET                                        0     0      0       0
                _I2C2_MasterResetBus
 ---------------------------------------------------------------------------------
 (7) _I2C2_MasterResetBus                                  0     0      0       0
 ---------------------------------------------------------------------------------
 (6) _I2C2_DO_ADDRESS_NACK                                 2     2      0   22127
                                             11 COMRAM     2     2      0
                   Absolute function *
           _I2C2_CallbackReturnReset *
            _I2C2_CallbackReturnStop *
               _I2C2_DO_SEND_RESTART
              _rd1RegCompleteHandler *
              _rd2RegCompleteHandler *
            _rdBlkRegCompleteHandler *
              _wr1RegCompleteHandler *
              _wr2RegCompleteHandler *
 ---------------------------------------------------------------------------------
 (7) _wr2RegCompleteHandler                                2     0      2    4368
                                              9 COMRAM     2     0      2
                     _I2C2_SetBuffer
       _I2C2_SetDataCompleteCallback
 ---------------------------------------------------------------------------------
 (7) _wr1RegCompleteHandler                                2     0      2    4368
                                              9 COMRAM     2     0      2
                     _I2C2_SetBuffer
       _I2C2_SetDataCompleteCallback
 ---------------------------------------------------------------------------------
 (7) _rdBlkRegCompleteHandler                              2     0      2    4390
                                              9 COMRAM     2     0      2
                     _I2C2_SetBuffer
       _I2C2_SetDataCompleteCallback
 ---------------------------------------------------------------------------------
 (7) _rd2RegCompleteHandler                                2     0      2    4368
                                              9 COMRAM     2     0      2
                     _I2C2_SetBuffer
       _I2C2_SetDataCompleteCallback
 ---------------------------------------------------------------------------------
 (7) _rd1RegCompleteHandler                                2     0      2    4368
                                              9 COMRAM     2     0      2
                     _I2C2_SetBuffer
       _I2C2_SetDataCompleteCallback
 ---------------------------------------------------------------------------------
 (8) _I2C2_SetDataCompleteCallback                         4     0      4    2478
                                              5 COMRAM     4     0      4
                   _I2C2_SetCallback
 ---------------------------------------------------------------------------------
 (3) _I2C2_SetCallback                                     5     1      4     914
                                              0 COMRAM     5     1      4
 ---------------------------------------------------------------------------------
 (2) _I2C2_SetBuffer                                       4     0      4    1868
                                              0 COMRAM     4     0      4
 ---------------------------------------------------------------------------------
 (6) _I2C2_DO_SEND_RESTART                                 0     0      0       0
 ---------------------------------------------------------------------------------
 (7) _I2C2_CallbackReturnStop                              2     0      2       0
                                              9 COMRAM     2     0      2
 ---------------------------------------------------------------------------------
 (7) _I2C2_CallbackReturnReset                             2     0      2     265
                                              9 COMRAM     2     0      2
 ---------------------------------------------------------------------------------
 (7) Absolute function(Fake)                               2     0      2       0
 ---------------------------------------------------------------------------------
 (6) _I2C2_ClearInterruptFlags                             0     0      0       0
          _I2C2_MasterClearCountFlag
           _I2C2_MasterClearNackFlag
           _I2C2_MasterClearStopFlag
          _I2C2_MasterIsCountFlagSet
           _I2C2_MasterIsNackFlagSet
           _I2C2_MasterIsStopFlagSet
 ---------------------------------------------------------------------------------
 (7) _I2C2_MasterIsStopFlagSet                             0     0      0       0
 ---------------------------------------------------------------------------------
 (7) _I2C2_MasterIsNackFlagSet                             0     0      0       0
 ---------------------------------------------------------------------------------
 (7) _I2C2_MasterIsCountFlagSet                            0     0      0       0
 ---------------------------------------------------------------------------------
 (7) _I2C2_MasterClearStopFlag                             0     0      0       0
 ---------------------------------------------------------------------------------
 (7) _I2C2_MasterClearNackFlag                             0     0      0       0
 ---------------------------------------------------------------------------------
 (7) _I2C2_MasterClearCountFlag                            0     0      0       0
 ---------------------------------------------------------------------------------
 (2) _I2C2_Close                                           1     1      0      15
                                              0 COMRAM     1     1      0
                _I2C2_MasterClearIrq
                   _I2C2_MasterClose
              _I2C2_MasterDisableIrq
 ---------------------------------------------------------------------------------
 (3) _I2C2_MasterDisableIrq                                0     0      0       0
 ---------------------------------------------------------------------------------
 (3) _I2C2_MasterClose                                     0     0      0       0
 ---------------------------------------------------------------------------------
 (3) _I2C2_MasterClearIrq                                  0     0      0       0
 ---------------------------------------------------------------------------------
 Estimated maximum stack depth 9
 ---------------------------------------------------------------------------------

 Call Graph Graphs:

 _main (ROOT)
   _I2C2_ReadNBytes
     _I2C2_Close
       _I2C2_MasterClearIrq
       _I2C2_MasterClose
       _I2C2_MasterDisableIrq
     _I2C2_MasterRead
       _I2C2_MasterOperation
         _I2C2_DO_SEND_ADR_READ
           _I2C2_DO_RX_EMPTY
             Absolute function(Fake) *
             _I2C2_CallbackReturnReset *
             _I2C2_CallbackReturnStop *
             _I2C2_MasterDisableRestart *
             _I2C2_MasterEnableRestart *
             _I2C2_MasterSetCounter *
             _rd1RegCompleteHandler *
               _I2C2_SetBuffer
               _I2C2_SetDataCompleteCallback
                 _I2C2_SetCallback
             _rd2RegCompleteHandler *
               _I2C2_SetBuffer
               _I2C2_SetDataCompleteCallback
             _rdBlkRegCompleteHandler *
               _I2C2_SetBuffer
               _I2C2_SetDataCompleteCallback
             _wr1RegCompleteHandler *
               _I2C2_SetBuffer
               _I2C2_SetDataCompleteCallback
             _wr2RegCompleteHandler *
               _I2C2_SetBuffer
               _I2C2_SetDataCompleteCallback
           _I2C2_MasterSendTxData
         _I2C2_DO_SEND_ADR_WRITE
           _I2C2_MasterSendTxData
         _I2C2_MasterSetCounter
         _I2C2_Poller
           _I2C2_MasterFsm
             _I2C2_ClearInterruptFlags
               _I2C2_MasterClearCountFlag
               _I2C2_MasterClearNackFlag
               _I2C2_MasterClearStopFlag
               _I2C2_MasterIsCountFlagSet
               _I2C2_MasterIsNackFlagSet
               _I2C2_MasterIsStopFlagSet
             _I2C2_DO_ADDRESS_NACK *
               Absolute function(Fake) *
               _I2C2_CallbackReturnReset *
               _I2C2_CallbackReturnStop *
               _I2C2_DO_SEND_RESTART *
               _rd1RegCompleteHandler *
               _rd2RegCompleteHandler *
               _rdBlkRegCompleteHandler *
               _wr1RegCompleteHandler *
               _wr2RegCompleteHandler *
             _I2C2_DO_BUS_COLLISION *
               Absolute function(Fake) *
               _I2C2_CallbackReturnReset *
               _I2C2_CallbackReturnStop *
               _I2C2_DO_RESET *
                 _I2C2_MasterResetBus
               _I2C2_DO_SEND_RESTART_READ *
                 _I2C2_DO_SEND_ADR_READ
                 _I2C2_MasterSetCounter
               _I2C2_DO_SEND_RESTART_WRITE *
               _I2C2_MasterClearIrq *
               _rd1RegCompleteHandler *
               _rd2RegCompleteHandler *
               _rdBlkRegCompleteHandler *
               _wr1RegCompleteHandler *
               _wr2RegCompleteHandler *
             _I2C2_DO_BUS_ERROR *
               _I2C2_MasterResetBus
             _I2C2_DO_IDLE *
             _I2C2_DO_RESET *
             _I2C2_DO_RX *
               _I2C2_DO_RX_EMPTY
               _I2C2_MasterGetRxData
               _I2C2_MasterIsRxBufFull
             _I2C2_DO_RX_ACK *
               _I2C2_MasterSendAck
             _I2C2_DO_RX_EMPTY *
             _I2C2_DO_RX_NACK_RESTART *
               _I2C2_MasterSendNack
             _I2C2_DO_RX_NACK_STOP *
               _I2C2_DO_IDLE
               _I2C2_MasterSendNack
               _I2C2_MasterStop
             _I2C2_DO_SEND_ADR_READ *
             _I2C2_DO_SEND_ADR_WRITE *
             _I2C2_DO_SEND_RESTART *
             _I2C2_DO_SEND_RESTART_READ *
             _I2C2_DO_SEND_RESTART_WRITE *
             _I2C2_DO_SEND_STOP *
               _I2C2_MasterGetCounter
               _I2C2_MasterSendTxData
               _I2C2_MasterSetCounter
               _I2C2_MasterStop
             _I2C2_DO_TX *
               Absolute function(Fake) *
               _I2C2_CallbackReturnReset *
               _I2C2_CallbackReturnStop *
               _I2C2_DO_SEND_RESTART_READ *
               _I2C2_DO_SEND_RESTART_WRITE *
               _I2C2_DO_TX_EMPTY *
                 Absolute function(Fake) *
                 _I2C2_CallbackReturnReset *
                 _I2C2_CallbackReturnStop *
                 _I2C2_MasterDisableRestart *
                 _I2C2_MasterEnableRestart *
                 _I2C2_MasterSetCounter *
                 _rd1RegCompleteHandler *
                 _rd2RegCompleteHandler *
                 _rdBlkRegCompleteHandler *
                 _wr1RegCompleteHandler *
                 _wr2RegCompleteHandler *
               _I2C2_MasterIsNack *
               _I2C2_MasterIsTxBufEmpty *
               _I2C2_MasterSendTxData *
               _rd1RegCompleteHandler *
               _rd2RegCompleteHandler *
               _rdBlkRegCompleteHandler *
               _wr1RegCompleteHandler *
               _wr2RegCompleteHandler *
             _I2C2_DO_TX_ACK *
               _I2C2_MasterSendAck
             _I2C2_DO_TX_EMPTY *
             _I2C2_MasterIsNack *
           _I2C2_MasterWaitForEvent
     _I2C2_Open
       _I2C2_MasterClearIrq
       _I2C2_MasterOpen
     _I2C2_SetBuffer
   _I2C2_WriteNBytes
     _I2C2_Close
     _I2C2_MasterWrite
       _I2C2_MasterOperation
     _I2C2_Open
     _I2C2_SetAddressNackCallback
       _I2C2_SetCallback
     _I2C2_SetBuffer
   _SYSTEM_Initialize
     _I2C2_Initialize
     _OSCILLATOR_Initialize
     _PIN_MANAGER_Initialize
     _PMD_Initialize

 Address spaces:
Name               Size   Autos  Total    Cost      Usage
BIGRAM             7FF      0       0      40        0.0%
EEDATA             400      0       0       0        0.0%
BITBIGSFRllllll    297      0       0      38        0.0%
BITBIGSFRlhhhhl    26D      0       0      25        0.0%
BITBIGSFRlhhhhh    254      0       0      22        0.0%
BITBANK7           100      0       0      18        0.0%
BANK7              100      0       0      19        0.0%
BITBANK6           100      0       0      16        0.0%
BANK6              100      0       0      17        0.0%
BITBANK5           100      0       0      14        0.0%
BANK5              100      0       0      15        0.0%
BITBANK4           100      0       0      12        0.0%
BANK4              100      0       0      13        0.0%
BITBANK3           100      0       0      10        0.0%
BANK3              100      0       0      11        0.0%
BITBANK2           100      0       0       8        0.0%
BANK2              100      0       0       9        0.0%
BITBANK1           100      0       0       6        0.0%
BANK1              100      0       0       7        0.0%
BITBANK0            A0      0       0       4        0.0%
BANK0               A0      0       0       5        0.0%
BITBIGSFRlhhhl      60      0       0      26        0.0%
BITCOMRAM           5F      0       0       0        0.0%
COMRAM              5F     1A      4C       1       80.0%
BITBIGSFRhh         3B      0       0      20        0.0%
BITBIGSFRllllh      35      0       0      31        0.0%
BITBIGSFRlllllh     29      0       0      32        0.0%
BITBIGSFRlhl        1C      0       0      28        0.0%
BITBIGSFRllllll     18      0       0      36        0.0%
BITBIGSFRllllll     11      0       0      35        0.0%
BITBIGSFRllllll      F      0       0      37        0.0%
BITBIGSFRlllh        B      0       0      30        0.0%
BITBIGSFRllh         B      0       0      29        0.0%
BITBIGSFRlhhhhl      6      0       0      24        0.0%
BITBIGSFRhl          5      0       0      21        0.0%
BITBIGSFRlhhl        2      0       0      27        0.0%
BITBIGSFRlhhhhh      1      0       0      23        0.0%
BITBIGSFRlllllh      1      0       0      33        0.0%
BITBIGSFRlllllh      1      0       0      34        0.0%
BIGSFR               0      0       0     200        0.0%
BITSFR_9             0      0       0     200        0.0%
SFR_9                0      0       0     200        0.0%
BITSFR_8             0      0       0     200        0.0%
SFR_8                0      0       0     200        0.0%
BITSFR_7             0      0       0     200        0.0%
SFR_7                0      0       0     200        0.0%
BITSFR_6             0      0       0     200        0.0%
SFR_6                0      0       0     200        0.0%
BITSFR_5             0      0       0     200        0.0%
SFR_5                0      0       0     200        0.0%
BITSFR_4             0      0       0     200        0.0%
SFR_4                0      0       0     200        0.0%
BITSFR_3             0      0       0     200        0.0%
SFR_3                0      0       0     200        0.0%
BITSFR_2             0      0       0     200        0.0%
SFR_2                0      0       0     200        0.0%
BITSFR_1             0      0       0     200        0.0%
SFR_1                0      0       0     200        0.0%
BITSFR               0      0       0     200        0.0%
SFR                  0      0       0     200        0.0%
STACK                0      0       0       2        0.0%
NULL                 0      0       0       0        0.0%
ABS                  0      0      4C      39        0.0%
DATA                 0      0      4C       3        0.0%
CODE                 0      0       0       0        0.0%


Microchip Technology PIC18 Macro Assembler V2.36 build 20220127204148 
Symbol Table                                                                                   Sat Oct 01 16:21:02 2022

                    _I2C2_WriteNBytes 0E8A                    _I2C2_MasterSendAck 13E0  
               _I2C2_DO_BUS_COLLISION 0C8A               _I2C2_MasterIsTxBufEmpty 1284  
                                  l90 10CE                                    l93 10A2  
                                  l69 0EE2                                    l78 1012  
                                  l96 1076                                    l99 10FA  
                                  u70 1304                                    u71 12FE  
                                  u80 12D8                                    u81 12D2  
                                  u90 12EE                                    u91 12E8  
                                  u76 1306                                    u86 12DA  
                                  u96 12F0                   _I2C2_MasterSendNack 13DA  
                _I2C2_DO_ADDRESS_NACK 0CFE         I2C2_SetAddressNackCallback@cb 0032  
                ?_I2C2_MasterClearIrq 002D              __end_of_I2C2_SetCallback 0B92  
                 _I2C2_MasterResetBus 138E                                   l102 0FCC  
                                 l202 1252                                   l205 119A  
                                 l403 123A                                   l422 1124  
                                 l350 11BC                                   l415 0F34  
                                 l431 094A                                   l407 0E2C  
                                 l159 0DCA                                   l600 1402  
                                 l512 0CFC                                   l425 131A  
                                 l505 0D68                                   l418 1378  
                                 l354 0B0E                                   l370 139E  
                                 l611 121E                                   l540 136E  
                                 l380 1282                                   l524 1418  
                                 l620 0E54                                   l364 0F80  
                                 l621 0E68                                   l614 13C6  
                                 l358 114E                                   l518 133A  
                                 l622 0E7A                                   l527 1414  
                                 l543 13EA                                   l367 13A6  
                                 l199 132C                                   l552 138C  
                                 l448 0A80                                   l456 0C88  
                                 l480 140C                                   l377 1200  
                                 l561 13F6                                   l449 0A30  
                                 l465 09E8                                   l625 0E88  
                                 l617 0E2E                                   l537 11DE  
                                 l546 1382                                   l570 13E4  
                                 l490 13BE                                   l474 1362  
                                 l618 0E42                                   l386 126A  
                                 l555 1396                                   l564 13D8  
                                 l484 1176                                   l397 0B90  
                                 l573 13DE                                   l549 13D2  
                                 l477 1410                                   l493 1356  
                                 l558 13F0                                   l582 1298  
                                 l591 12F0                                   l567 12AE  
                                 l487 13B6                                   l496 13AE  
                                 l656 0C00                                   l585 12DA  
                                 l594 13FC                                   l579 12C4  
                                 l499 1348                                   l659 0C06  
                                 l588 1306                                   l597 1408  
                                 u120 12C2                                   u121 12BC  
                                 u130 0EF8                                   u131 0EF4  
                                 u140 0F14                                   u300 0E76  
                                 u141 0F10                                   u301 0E72  
                                 u150 0F30                                   u126 12C4  
                                 u310 0E88                                   u151 0F2C  
                                 u311 0E84                                   u400 1138  
                                 u401 1134                                   u270 0E3E  
                                 u271 0E3A                                   u600 11EE  
                                 u280 0E50                                   u360 11CE  
                                 u601 11EA                                   u281 0E4C  
                                 u361 11CA                                   u610 0984  
                                 u290 0E64                                   u611 0980  
                                 u291 0E60                                   u700 08DC  
                                 u701 08D8                                   u630 1116  
                                 u710 0920                                   u631 1112  
                                 u711 091C                                   u640 12AC  
                                 u720 09FE                                   u641 12A6  
                                 u721 09FA                                   u650 1296  
                                 u730 0A18                                   u810 123A  
                                 u651 1290                                   u731 0A14  
                                 u811 1236                                   u740 0A48  
                                 u628 099C                                   u820 0F4A  
                 ?_I2C2_MasterSendAck 002D                                   u741 0A44  
                                 u629 09B0                                   u821 0F46  
                                 u590 0B24                                   u646 12AE  
                                 u670 083C                                   u750 1168  
                                 u830 0F66                                   u591 0B20  
                                 u671 0838                                   u751 1164  
                                 u831 0F62                                   u656 1298  
                                 u808 0E12                                   u840 0A96  
                                 u809 0E2A                                   u841 0A92  
                                 u690 08C8                                   u850 0EA2  
                                 u691 08C4                                   u851 0E9E  
                                 u668 0C44                                   u780 0DE4  
                                 u860 0EE2                                   u669 0C58  
                                 u781 0DE0                                   u861 0EDE  
                                 u790 0DF8                                   u870 0FE6  
                                 u791 0DF4                                   u871 0FE2  
                                 u688 0868                                   u768 0D2C  
                                 u880 1012                                   u689 087C  
                                 u769 0D40                                   u881 100E  
                                 u778 0CC0                                   u779 0CD4  
                                 u990 0C00                                   u991 0BFC  
                                 prod 003FF3                                   tosl 003FFD  
                                 wreg 003FE8              _I2C2_ClearInterruptFlags 0EE4  
   __end_of_I2C2_MasterIsCountFlagSet 1308             ??_I2C2_DO_RX_NACK_RESTART 002D  
    __end_of_I2C2_CallbackReturnReset 1416            ?_I2C2_DO_SEND_RESTART_READ 002D  
             ??_rd2RegCompleteHandler 0038                                  l2201 108C  
                                l2203 10A0                                  l2211 1074  
                                l2301 135E                                  l2215 10D0  
                                l2207 104C                                  l2223 0F82  
                                l2231 1386                                  l2217 10E4  
                                l2209 1060                                  l2225 0FB6  
                                l2241 1412                                  l2233 13EC  
                                l2321 0C20                                  l2313 0C10  
                                l2305 140E                                  l2219 10F8  
                                l2227 0FCA                                  l2235 13F2  
                                l2411 0A18                                  l2403 09EA  
                                l2323 0C26                                  l2315 0C16  
                                l1461 13C0                                  l2181 126C  
                                l2237 1416                                  l2309 1284  
                                l2341 1308                                  l2413 0A48  
                                l2405 09FE                                  l2317 0C1A  
                                l2261 096C                                  l2253 095C  
                                l2245 094C                                  l1701 13AC  
                                l2501 1228                                  l1471 1404  
                                l2183 11E0                                  l2175 0B12  
                                l2191 10A4                                  l1535 12B0  
                                l2343 1310                                  l2415 0A5A  
                                l2423 0A62                                  l2327 0C2C  
                                l2335 0C36                                  l2255 0960  
                                l2247 0952                                  l1543 140A  
                                l2503 122C                                  l2511 0F4C  
                                l1801 1368                                  l1473 12C6  
                                l2185 11EE                                  l2177 0B24  
                                l2193 10B8                                  l2281 137C  
                                l1553 13E0                                  l2345 1318  
                                l2361 0850                                  l2353 0840  
                                l2425 0A68                                  l2409 0A04  
                                l2329 0C30                                  l2265 0972  
                                l2249 0956                                  l2433 1150  
                                l1561 1342                                  l2521 0F72  
                                l2513 0F50                                  l2505 0F38  
                                l2601 0FD0                                  l1803 136C  
                                l1483 13FE                                  l1467 12F2  
                                l2187 11F6                                  l2179 0B60  
                                l2195 10CC                                  l1459 138E  
                                l1539 13E6                                  l1555 13DA  
                                l1547 13D4                                  l2291 1122  
                                l2283 10FC                                  l2371 08C8  
                                l2427 0A7A                                  l2267 0984  
                                l2259 0966                                  l2275 098E  
                                l2435 1154                                  l1563 1346  
                                l2451 0D14                                  l2443 0CFE  
                                l2523 0F76                                  l2515 0F56  
                                l2507 0F3C                                  l2531 0A84  
                                l2603 0FD0                                  l1477 13F8  
                                l1581 0F14                                  l2189 11FE  
                                l1549 13CE                                  l1485 1370  
                                l2285 1104                                  l2381 0920  
                                l2373 08DC                                  l2357 0848  
                                l2349 0828                                  l2429 0A7E  
                                l2269 0988                                  l2437 1168  
                                l1557 133C                                  l2445 0D06  
                                l2525 0F7A                                  l2517 0F66  
                                l2509 0F4A                                  l2541 0A9E  
                                l2533 0A88                                  l2605 0FE6  
                                l2701 0BEE                                  l1479 12DC  
                                l1583 0F1C                                  l1575 0EE4  
                                l2199 1078                                  l2295 129A  
                                l1487 1372                                  l2287 1116  
                                l2383 0930                                  l2375 08F4  
                                l2367 0856                                  l2439 1174  
                                l1559 1340                                  l2447 0D0C  
                                l2471 0C9E                                  l2463 0C8A  
                                l1751 1332                                  l2519 0F6A  
                                l2527 0F7E                                  l2551 0AB8  
                                l2543 0AA2                                  l2535 0A96  
                                l2607 0FFA                                  l1911 0DAA  
                                l1585 0F30                                  l1577 0EF8  
                                l1489 1376                                  l2289 111A  
                                l2385 0938                                  l2377 0904  
                                l2369 08B4                                  l1681 13B0  
                                l2457 0D1A                                  l2481 0CAE  
                                l2465 0C8E                                  l1753 1334  
                                l2561 0AE0                                  l2553 0AC0  
                                l2545 0AA6                                  l2537 0A9A  
                                l2609 0FFE                                  l1921 0DB4  
                                l1913 0DAC                                  l1579 0F00  
                                l2387 093C                                  l2379 0908  
                                l2395 0948                                  l2811 088E  
                                l2299 1358                                  l1683 13B4  
                                l2803 0CE6                                  l2475 0CA6  
                                l2467 0C96                                  l1755 1338  
                                l2491 0DE4                                  l2571 0B04  
                                l2563 0AE8                                  l2555 0AC8  
                                l2547 0AAE                                  l2539 0A9C  
                                l1931 123C                                  l1915 0DAE  
                                l1907 0D6A                                  l1923 1178  
                                l2389 0942                                  l1693 134A  
                                l2805 0D52                                  l1749 132E  
                                l2493 0DF8                                  l2573 0B08  
                                l2565 0AF0                                  l2557 0AD0  
                                l2549 0AB0                                  l2581 1398  
                                l1925 119C                                  l1917 0DB0  
                                l1909 0D76                                  l1687 13B8  
                                l2807 09C2                                  l1695 1352  
                                l2495 0DFC                                  l2487 0DCC  
                                l1791 11DA                                  l2567 0AF8  
                                l2559 0AD8                                  l2575 0B0C  
                                l2591 0E8C                                  l1927 11BA  
                                l1919 0DB2                                  l1689 13BC  
                                l2809 0C6A                                  l2489 0DD0  
                                l2497 1220                                  l2585 13A0  
                                l1793 11DC                                  l2569 0B00  
                                l2593 0EA2                                  l1891 113C  
                                l1699 13A8                                  l2499 1224  
                                l1787 11BE                                  l2579 1254  
                                l2595 0EB6                                  l1955 131C  
                                l2691 0B98                                  l1797 1202  
                                l1893 1140                                  l1885 1126  
                                l1789 11CE                                  l2597 0ECA  
                                l2589 0E8C                                  l2693 0BB0  
             ?_I2C2_DO_SEND_ADR_WRITE 002D                                  l1799 1364  
                                l1895 1144                                  l1887 112A  
                                l2599 0ECE                                  l2695 0BC6  
                                l2687 0B92                                  l1897 1148  
                                l1889 1138                                  l2697 0BDC  
                                l2689 0B96                                  l1899 114C  
                                l2699 0BEC                  _I2C2_MasterOperation 0F36  
                                u1007 0BA2                                  u1017 0BE2  
                                _LATA 003FBA                                  _LATB 003FBB  
                                _LATC 003FBC                                  _PMD0 0039C0  
                                _PMD1 0039C1                                  _PMD2 0039C2  
                                _PMD3 0039C3                                  _PMD4 0039C4  
                                _PMD5 0039C5                                  _PMD6 0039C6  
                                _PMD7 0039C7             I2C2_MasterSendTxData@data 002D  
                                _WPUA 003A41                                  _WPUB 003A51  
                                _WPUC 003A61                                  _WPUE 003A81  
                ?_I2C2_MasterSendNack 002D               ??_wr2RegCompleteHandler 0038  
               ?_I2C2_MasterGetRxData 002D         __end_of_I2C2_DO_SEND_ADR_READ 1126  
                       _i2c_read_data 0029                  ?_I2C2_MasterResetBus 002D  
                                _main 0B92                                  fsr2h 003FDA  
                                indf2 003FDF                                  fsr1l 003FE1  
                                fsr2l 003FD9                  ??_I2C2_MasterSendAck 002D  
                                prodh 003FF4                                  prodl 003FF3  
                                start 7FFC                      ??_I2C2_MasterFsm 003E  
               _I2C2_MasterSetCounter 1384                          ___param_bank 000000  
          ??_I2C2_MasterIsNackFlagSet 002D                         _i2c_send_data 0047  
               _I2C2_MasterSendTxData 137A                      ??_I2C2_SetBuffer 0031  
         ??_I2C2_MasterDisableRestart 002D                 ?_I2C2_DO_ADDRESS_NACK 002D  
       __end_of_OSCILLATOR_Initialize 1254                 ??_I2C2_MasterClearIrq 002D  
         ?_I2C2_DO_SEND_RESTART_WRITE 002D  __end_of_I2C2_SetDataCompleteCallback 1284  
        _I2C2_SetDataCompleteCallback 126C                                 ?_main 002D  
                   __end_of_I2C2_Open 0B10                                 _OSCEN 0039DD  
        ?_I2C2_SetAddressNackCallback 0032                ?_I2C2_MasterGetCounter 002D  
                               _TRISA 003FC2                                 _TRISB 003FC3  
                               _TRISC 003FC4                ?_I2C2_MasterDisableIrq 002D  
      __end_of_I2C2_DO_SEND_ADR_WRITE 131C              ?_I2C2_CallbackReturnStop 0036  
               ?_I2C2_MasterOperation 002D                 I2C2_Close@returnValue 002D  
   __end_of_I2C2_DO_SEND_RESTART_READ 1364                 ??_I2C2_MasterSendNack 002D  
                               pclath 003FFA                                 tablat 003FF5  
                _I2C2_DO_RX_NACK_STOP 134A                 ??_I2C2_MasterResetBus 002D  
             fp__I2C2_DO_SEND_RESTART 0000                     ??_I2C2_ReadNBytes 0044  
                               status 003FD8                          ??_I2C2_DO_RX 003A  
                        ??_I2C2_DO_TX 0038                          ??_I2C2_Close 002D  
            _I2C2_MasterIsStopFlagSet 12C6                     ??_I2C2_MasterRead 0040  
                   ??_I2C2_MasterOpen 002D             ??_I2C2_MasterIsTxBufEmpty 002D  
            fp__rd1RegCompleteHandler 0000                     ??_I2C2_MasterStop 002D  
                   ??_I2C2_Initialize 002D                       __initialization 1014  
              ?_I2C2_DO_BUS_COLLISION 002D                          __end_of_main 0C10  
            fp__wr1RegCompleteHandler 0000   __end_of_I2C2_SetAddressNackCallback 126C  
         _I2C2_SetAddressNackCallback 1254                                ??_main 0045  
                       __activetblptr 000002                    __end_of_I2C2_DO_RX 0A82  
                  __end_of_I2C2_DO_TX 094C         ??_I2C2_SetAddressNackCallback 0036  
                  __end_of_I2C2_Close 1150             _I2C2_MasterDisableRestart 13F2  
                              _ANSELA 003A40                                _ANSELB 003A50  
                              _ANSELC 003A60                ??_I2C2_MasterGetRxData 002D  
                              _RB1PPS 003A09                                _RB2PPS 003A0A  
               ?_I2C2_DO_RX_NACK_STOP 002D                                _ODCONA 003A42  
                              _ODCONB 003A52                                _ODCONC 003A62  
                              _INLVLA 003A44                                _INLVLB 003A54  
                              _INLVLC 003A64                                _INLVLE 003A84  
                              _OSCFRQ 0039DF              _I2C2_CallbackReturnReset 1412  
         fp__I2C2_CallbackReturnReset 0000                ?_I2C2_MasterSetCounter 002D  
              ?_I2C2_MasterSendTxData 002D              fp__I2C2_DO_SEND_ADR_READ 0000  
                I2C2_SetBuffer@buffer 002D             ?_I2C2_MasterClearNackFlag 002D  
              ??_I2C2_DO_ADDRESS_NACK 0038                                clear_0 103C  
                              isa$std 000001       __end_of_I2C2_CallbackReturnStop 141A  
                      _PMD_Initialize 1178                          __pdataCOMRAM 0047  
         ??_I2C2_MasterIsCountFlagSet 002D                          __mediumconst 0000  
       fp__I2C2_DO_SEND_RESTART_WRITE 0000                                tblptrh 003FF7  
                              tblptrl 003FF6                                tblptru 003FF8  
              ??_I2C2_MasterOperation 003E        I2C2_CallbackReturnReset@funPtr 0036  
            __end_of_I2C2_WriteNBytes 0EE4             ?_I2C2_MasterClearStopFlag 002D  
                   _SYSTEM_Initialize 131C                            __accesstop 0060  
             __end_of__initialization 1042               ?_I2C2_MasterIsRxBufFull 002D  
                   ?_I2C2_MasterClose 002D               I2C2_WriteNBytes@address 0044  
                  ?_SYSTEM_Initialize 002D                      _I2C2_DO_RX_EMPTY 094C  
                       ___rparam_used 000001                     ?_I2C2_MasterWrite 002D  
            I2C2_SetBuffer@bufferSize 002F                    ??_I2C2_MasterClose 002D  
                    _I2C2_DO_TX_EMPTY 0C10                         ??_I2C2_Poller 003E  
             _rdBlkRegCompleteHandler 0F82            fp__rdBlkRegCompleteHandler 0000  
                  ??_I2C2_MasterWrite 0040                        __pcstackCOMRAM 002D  
                 ??_SYSTEM_Initialize 002D            ??_I2C2_ClearInterruptFlags 002D  
              __end_of_PMD_Initialize 119C                     ?_I2C2_SetCallback 002D  
                  ??_I2C2_SetCallback 0031                ??_I2C2_DO_RX_NACK_STOP 002D  
           __end_of_SYSTEM_Initialize 132E                 __end_of_I2C2_DO_RESET 134A  
         ??_I2C2_DO_SEND_RESTART_READ 002E        __end_of_I2C2_MasterIsRxBufFull 12C6  
       __end_of_rd2RegCompleteHandler 10A4         __end_of_wr2RegCompleteHandler 10FC  
               _rd1RegCompleteHandler 10A4             _I2C2_MasterIsCountFlagSet 12F2  
                 I2C2_WriteNBytes@len 0042                 _wr1RegCompleteHandler 104C  
            rd1RegCompleteHandler@ptr 0036                         fp__I2C2_DO_RX 0000  
                       fp__I2C2_DO_TX 0000                               _I2C2CLK 003D65  
                     fp__I2C2_DO_IDLE 0000                               _I2C2CNT 003D56  
                             _I2C2ERR 003D60                               _I2C2PIE 003D64  
                             _I2C2PIR 003D63                               _I2C2RXB 003D54  
                             _I2C2TXB 003D55                   __end_of_I2C2_Poller 123C  
             ??_I2C2_MasterGetCounter 002D               _I2C2_MasterWaitForEvent 0E2E  
                     ?_PMD_Initialize 002D               ??_I2C2_MasterDisableIrq 002D  
                     _I2C2_ReadNBytes 0FCE            __end_of_i2c2_fsmStateTable 0827  
                             _OSCCON1 0039D9                               _OSCCON3 0039DB  
                           _I2C2_Open 0A82             ?_I2C2_MasterEnableRestart 002D  
                   fp__I2C2_DO_RX_ACK 0000                     fp__I2C2_DO_TX_ACK 0000  
                             _OSCTUNE 0039DE                               _SLRCONA 003A43  
                             _SLRCONB 003A53                               _SLRCONC 003A63  
          ??_I2C2_MasterIsStopFlagSet 002D                       _I2C2_MasterRead 13A0  
                     _I2C2_MasterOpen 11BE                       _I2C2_MasterStop 13D4  
                     _I2C2_Initialize 119C             ??_rdBlkRegCompleteHandler 0038  
             ??_I2C2_DO_BUS_COLLISION 0038                 _I2C2_DO_SEND_ADR_READ 10FC  
                             __Hparam 0000                               __Lparam 0000  
         __end_of_I2C2_MasterClearIrq 13C8             _I2C2_DO_SEND_RESTART_READ 1358  
                        __psmallconst 0800                               __pcinit 1014  
                             __ramtop 0800                               __ptext0 0B92  
                             __ptext1 131C                               __ptext2 1178  
                             __ptext3 0D6A                               __ptext4 123C  
                             __ptext5 119C                               __ptext6 0E8A  
                             __ptext7 1254                               __ptext8 1398  
                             __ptext9 0FCE                         ?_I2C2_DO_IDLE 002D  
             fp__I2C2_DO_ADDRESS_NACK 0000              ?_I2C2_DO_RX_NACK_RESTART 002D  
                  I2C2_ReadNBytes@len 0042            ?_I2C2_MasterClearCountFlag 002D  
               _OSCILLATOR_Initialize 123C                           _I2C2ERRbits 003D60  
         __end_of_I2C2_MasterSendNack 13E0              ??_PIN_MANAGER_Initialize 002D  
            wr1RegCompleteHandler@ptr 0036            ??_I2C2_CallbackReturnReset 0038  
                          ?_I2C2_Open 002D                           _I2C2PIEbits 003D64  
           ?_I2C2_MasterIsNackFlagSet 002D           __end_of_I2C2_MasterResetBus 1398  
                         _I2C2PIRbits 003D63                     _I2C2_DO_BUS_ERROR 132E  
       I2C2_CallbackReturnStop@funPtr 0036                  end_of_initialization 1042  
                    _i2c_memory_index 0027      __end_of_I2C2_MasterClearNackFlag 1404  
                  ?_I2C2_DO_BUS_ERROR 002D               ??_I2C2_MasterSetCounter 002D  
             ??_I2C2_MasterSendTxData 002D                         __Lmediumconst 0000  
              ?_rd1RegCompleteHandler 0036                ?_wr1RegCompleteHandler 0036  
                 ??_I2C2_DO_BUS_ERROR 002D                           _I2C2_Poller 1220  
                   _I2C2_DO_SEND_STOP 1150              fp__rd2RegCompleteHandler 0000  
                         _I2C2_Status 0001                   fp__I2C2_DO_RX_EMPTY 0000  
                             postdec1 003FE5                               postdec2 003FDD  
           ??_I2C2_MasterWaitForEvent 002D              fp__wr2RegCompleteHandler 0000  
                             postinc0 003FEE                               postinc2 003FDE  
                  ?_I2C2_DO_SEND_STOP 002D                   fp__I2C2_DO_TX_EMPTY 0000  
             __end_of_I2C2_ReadNBytes 1014                        ??_I2C2_DO_IDLE 002D  
    __end_of_I2C2_MasterClearStopFlag 13FE                  I2C2_Open@returnValue 002E  
     __end_of_rdBlkRegCompleteHandler 0FCE                   ??_I2C2_DO_SEND_STOP 002E  
            __end_of_I2C2_DO_RX_EMPTY 09EA               __end_of_I2C2_MasterRead 13A8  
             __end_of_I2C2_MasterOpen 11E0     __end_of_I2C2_MasterClearCountFlag 140A  
             __end_of_I2C2_MasterStop 13DA               __end_of_I2C2_Initialize 11BE  
            __end_of_I2C2_DO_TX_EMPTY 0C8A             __end_of_I2C2_DO_BUS_ERROR 133C  
                   _I2C2_MasterIsNack 129A                    ?_I2C2_MasterIsNack 002D  
                   ?_I2C2_WriteNBytes 0040                    ??_I2C2_WriteNBytes 0044  
             fp__I2C2_DO_RX_NACK_STOP 0000                ?_I2C2_DO_SEND_ADR_READ 002D  
          rdBlkRegCompleteHandler@ptr 0036              ?_I2C2_MasterIsTxBufEmpty 002D  
                 ??_I2C2_MasterIsNack 002D             __end_of_I2C2_DO_SEND_STOP 1178  
     __end_of_I2C2_DO_RX_NACK_RESTART 13B0          __end_of_I2C2_DO_SEND_RESTART 140E  
            I2C2_MasterOperation@read 003E                         __pidataCOMRAM 13C8  
              ?_OSCILLATOR_Initialize 002D              ??_I2C2_DO_SEND_ADR_WRITE 002D  
                      _I2C2_DO_TX$861 003A             __end_of_I2C2_MasterIsNack 12B0  
                 start_initialization 1014                        _I2C2_DO_RX_ACK 13B0  
                      _I2C2_DO_TX_ACK 13B8                           ??_I2C2_Open 002D  
       ?_I2C2_SetDataCompleteCallback 0032              _I2C2_MasterClearNackFlag 13FE  
             _I2C2_CallbackReturnStop 1416            fp__I2C2_CallbackReturnStop 0000  
                    ??_PMD_Initialize 002D      __end_of_I2C2_MasterEnableRestart 13F2  
                    ?_I2C2_ReadNBytes 0040          ??_I2C2_DO_SEND_RESTART_WRITE 002D  
              __end_of_I2C2_DO_RX_ACK 13B8         __end_of_I2C2_MasterGetCounter 13D4  
              __end_of_I2C2_DO_TX_ACK 13C0                      ?_I2C2_MasterRead 002D  
                    ?_I2C2_MasterOpen 002D                           __pbssCOMRAM 0001  
                    ?_I2C2_MasterStop 002D                      ?_I2C2_Initialize 002D  
      I2C2_SetAddressNackCallback@ptr 0034         __end_of_I2C2_MasterDisableIrq 1220  
            _I2C2_MasterClearStopFlag 13F8       __end_of_I2C2_MasterIsTxBufEmpty 129A  
           ?_I2C2_ClearInterruptFlags 002D                  __end_of_I2C2_DO_IDLE 137A  
                  _i2c2_fsmStateTable 0801                  I2C2_WriteNBytes@data 0040  
               _rd2RegCompleteHandler 1078                _PIN_MANAGER_Initialize 0D6A  
       __end_of_I2C2_DO_BUS_COLLISION 0CFE                 _wr2RegCompleteHandler 10D0  
            rd2RegCompleteHandler@ptr 0036      __end_of_I2C2_MasterIsNackFlagSet 12F2  
                            _I2C2CON0 003D5D                              _I2C2CON1 003D5E  
                            _I2C2CON2 003D5F                      I2C2_DO_TX@dataTx 003C  
                    fp__I2C2_DO_RESET 0000                        _I2C2_MasterFsm 0DCC  
                     ?_I2C2_DO_RX_ACK 002D                       ?_I2C2_DO_TX_ACK 002D  
                         __smallconst 0800           ??_I2C2_MasterClearCountFlag 002D  
                      _I2C2_SetBuffer 11E0                 I2C2_DO_RX@retFsmState 003C  
             ??_rd1RegCompleteHandler 0038                  _I2C2_DO_SEND_RESTART 140A  
                          _I2C2SDAPPS 003AE6            __end_of_I2C2_MasterSendAck 13E6  
                          _I2C2SCLPPS 003AE5               ??_wr1RegCompleteHandler 0038  
           ??_I2C2_CallbackReturnStop 0038        ??_I2C2_SetDataCompleteCallback 0036  
     I2C2_MasterOperation@returnValue 003F                              _LATBbits 003FBB  
                            _LATCbits 003FBC                            _I2C2_DO_RX 09EA  
                          _I2C2_DO_TX 0828         __end_of_I2C2_MasterSetCounter 138E  
                            _PIE7bits 003997         __end_of_I2C2_MasterSendTxData 1384  
                          _I2C2_Close 1126                          ?_I2C2_Poller 002D  
                            _PIR7bits 0039A7                         _I2C2STAT1bits 003D62  
           ?_I2C2_MasterIsStopFlagSet 002D                __end_of_I2C2_MasterFsm 0E2E  
                    _I2C2_MasterClose 1364              _I2C2_MasterEnableRestart 13EC  
                    _I2C2_MasterWrite 1398                I2C2_ReadNBytes@address 0044  
                    I2C2_Open@address 002D                __end_of_I2C2_SetBuffer 1202  
                   ?_I2C2_DO_RX_EMPTY 002D              ??_I2C2_MasterIsRxBufFull 002D  
                   ?_I2C2_DO_TX_EMPTY 002D              wr2RegCompleteHandler@ptr 0036  
                  ??_I2C2_DO_RX_EMPTY 0038                    ??_I2C2_DO_TX_EMPTY 0038  
             ??_I2C2_DO_SEND_ADR_READ 002D                             copy_data0 1028  
            ?_rdBlkRegCompleteHandler 0036                 ?_I2C2_DO_SEND_RESTART 002D  
                       _I2C2_DO_RESET 133C                      _I2C2_SetCallback 0B10  
              ?_rd2RegCompleteHandler 0036                _I2C2_DO_SEND_ADR_WRITE 1308  
           _I2C2_MasterClearCountFlag 1404                ?_wr2RegCompleteHandler 0036  
                            __Hrparam 0000             ?_I2C2_CallbackReturnReset 0036  
                            __Lrparam 0000               ??_OSCILLATOR_Initialize 002D  
          ?_I2C2_MasterDisableRestart 002D                       ?_I2C2_MasterFsm 002D  
        __end_of_I2C2_MasterGetRxData 13EC              fp__I2C2_DO_BUS_COLLISION 0000  
  __end_of_I2C2_DO_SEND_RESTART_WRITE 1412            _I2C2_DO_SEND_RESTART_WRITE 140E  
        fp__I2C2_DO_SEND_RESTART_READ 0000              _I2C2_MasterIsNackFlagSet 12DC  
                     ?_I2C2_SetBuffer 002D          I2C2_MasterSetCounter@counter 002D  
                        _I2C2CON0bits 003D5D                          _I2C2CON1bits 003D5E  
                            __ptext10 0A82                              __ptext11 11BE  
                            __ptext20 133C                              __ptext12 13A0  
                            __ptext21 13A8                              __ptext13 0F36  
                            __ptext30 09EA                              __ptext22 134A  
                            __ptext14 1220                              __ptext31 0828  
                            __ptext23 13B0                              __ptext15 0E2E  
                            __ptext40 13DA                              __ptext32 1308  
                            __ptext24 1150                              __ptext16 0DCC  
                            __ptext41 13E0                              __ptext33 10FC  
                            __ptext25 140A                              __ptext17 132E  
                            __ptext50 1416                              __ptext42 12B0  
                            __ptext34 1370                              __ptext26 140E  
                            __ptext18 0C8A                              __ptext51 0F82  
                            __ptext43 13E6                              __ptext35 13B8  
                            __ptext27 1358                              __ptext19 0CFE  
                            __ptext60 12C6                              __ptext52 104C  
                            __ptext44 137A                              __ptext36 1284  
                            __ptext28 094C                              __ptext61 12DC  
                            __ptext53 1078                              __ptext45 1384  
                            __ptext37 129A                              __ptext29 0C10  
                            __ptext70 0000                              __ptext62 12F2  
                            __ptext54 10A4                              __ptext46 13EC  
                            __ptext38 13CE                              __ptext63 13F8  
                            __ptext55 10D0                              __ptext47 13F2  
                            __ptext39 13D4                              __ptext64 13FE  
                            __ptext56 126C                              __ptext48 138E  
                            __ptext65 1404                              __ptext57 0B10  
                            __ptext49 1412                              __ptext66 1126  
                            __ptext58 11E0                              __ptext67 1202  
                            __ptext59 0EE4                              __ptext68 1364  
                            __ptext69 13C0            ??_I2C2_MasterClearNackFlag 002D  
                      ?_I2C2_DO_RESET 002D                   I2C2_ReadNBytes@data 0040  
        __end_of_I2C2_DO_ADDRESS_NACK 0D6A                           ?_I2C2_DO_RX 002D  
                         ?_I2C2_DO_TX 002D              ?_I2C2_MasterWaitForEvent 002D  
                         ?_I2C2_Close 002D                   I2C2_SetCallback@idx 0031  
                 I2C2_SetCallback@ptr 002F                  fp__I2C2_DO_BUS_ERROR 0000  
                            isa$xinst 000000          __end_of_I2C2_MasterOperation 0F82  
          ??_I2C2_MasterClearStopFlag 002D     __end_of_I2C2_MasterDisableRestart 13F8  
    __end_of_I2C2_ClearInterruptFlags 0F36                     _i2c_memory_config 0025  
                        _I2C2_DO_IDLE 1370                  fp__I2C2_DO_SEND_STOP 0000  
              ??_I2C2_DO_SEND_RESTART 002D               _I2C2_DO_RX_NACK_RESTART 13A8  
          fp__I2C2_DO_RX_NACK_RESTART 0000               ?_PIN_MANAGER_Initialize 002D  
                  I2C2_SetCallback@cb 002D                      ??_I2C2_DO_RX_ACK 002D  
                    ??_I2C2_DO_TX_ACK 002D          __end_of_I2C2_DO_RX_NACK_STOP 1358  
          ?_I2C2_MasterIsCountFlagSet 002D       I2C2_SetDataCompleteCallback@ptr 0034  
               _I2C2_MasterGetCounter 13CE                       ??_I2C2_DO_RESET 002D  
               _I2C2_MasterDisableIrq 1202                 I2C2_DO_TX@retFsmState 003D  
     __end_of_I2C2_MasterWaitForEvent 0E8A        __end_of_PIN_MANAGER_Initialize 0DCC  
      I2C2_SetDataCompleteCallback@cb 0032      __end_of_I2C2_MasterIsStopFlagSet 12DC  
       __end_of_rd1RegCompleteHandler 10D0              __end_of_I2C2_MasterClose 1370  
                _I2C2_MasterGetRxData 13E6                   _I2C2_MasterClearIrq 13C0  
            __end_of_I2C2_MasterWrite 13A0         __end_of_wr1RegCompleteHandler 1078  
           fp__I2C2_DO_SEND_ADR_WRITE 0000                _I2C2_MasterIsRxBufFull 12B0  
          ??_I2C2_MasterEnableRestart 002D  
